##############################################################################
#                                                                            #
# IAR ARM ANSI C/C++ Compiler V4.42A/W32 EVALUATION    16/Feb/2023  22:41:12 #
# Copyright 1999-2005 IAR Systems. All rights reserved.                      #
#                                                                            #
#    Cpu mode        =  interwork                                            #
#    Endian          =  little                                               #
#    Stack alignment =  4                                                    #
#    Source file     =  D:\Users\alfinant\Documents\Siemens\Dev\IAR\VK.ELF_C #
#                       \dyn_theme.c                                         #
#    Command line    =  D:\Users\alfinant\Documents\Siemens\Dev\IAR\VK.ELF_C #
#                       \dyn_theme.c -D NEWSGOLD -D ELKA -D DEBUG -lCN       #
#                       D:\Users\alfinant\Documents\Siemens\Dev\IAR\VK.ELF_C #
#                       \Release_ELKA\List\ -la D:\Users\alfinant\Documents\ #
#                       Siemens\Dev\IAR\VK.ELF_C\Release_ELKA\List\ -o       #
#                       D:\Users\alfinant\Documents\Siemens\Dev\IAR\VK.ELF_C #
#                       \Release_ELKA\Obj\ -z9 --cpu_mode arm --endian       #
#                       little --cpu ARM926EJ-S --stack_align 4 --interwork  #
#                       --diag_suppress Pe301 -e --fpu None --dlib_config    #
#                       D:\Users\alfinant\Documents\Siemens\IAR\ARM\LIB\dl5t #
#                       painl8n.h -I D:\Users\alfinant\Documents\Siemens\IAR #
#                       \ARM\INC\ --inline_threshold=2                       #
#    List file       =  D:\Users\alfinant\Documents\Siemens\Dev\IAR\VK.ELF_C #
#                       \Release_ELKA\List\dyn_theme.lst                     #
#    Object file     =  D:\Users\alfinant\Documents\Siemens\Dev\IAR\VK.ELF_C #
#                       \Release_ELKA\Obj\dyn_theme.r79                      #
#                                                                            #
#                                                                            #
##############################################################################

D:\Users\alfinant\Documents\Siemens\Dev\IAR\VK.ELF_C\dyn_theme.c
      1          #include <siemens\swilib.h>
      2          
      3          extern const int CFG_ENA_THEME;
      4          

   \                                 In segment DATA_Z, align 4, align-sorted
      5          static IMGHDR *my_statusbar_st=NULL; 
   \                     my_statusbar_st:
   \   00000000                      DS8 4
   \   00000004                      DS8 4
   \   00000008                      DS8 4
   \   0000000C                      DS8 4
   \   00000010                      DS8 4
   \   00000014                      DS8 4
   \   00000018                      DS8 4
   \   0000001C                      DS8 4
   \   00000020                      DS8 4
   \   00000024                      DS8 4
   \   00000028                      DS8 4
   \   0000002C                      DS8 4
   \   00000030                      DS8 4
   \   00000034                      DS8 4
   \   00000038                      DS8 12
   \   00000044                      DS8 12
   \   00000050                      DS8 12
   \   0000005C                      DS8 12
   \   00000068                      DS8 12
   \   00000074                      DS8 12
   \   00000080                      DS8 12
   \   0000008C                      DS8 4
   \   00000090                      DS8 4
   \   00000094                      DS8 4
   \   00000098                      DS8 4
   \   0000009C                      DS8 4
   \   000000A0                      DS8 4
   \   000000A4                      DS8 4
      6          static IMGHDR *my_headline_st=NULL;
      7          static IMGHDR *my_body_st=NULL;
      8          static IMGHDR *my_bottom_st=NULL;
      9          static IMGHDR *my_popup_feedback=NULL;
     10          static IMGHDR *my_sel_2line=NULL;
     11          static IMGHDR *my_sel_1line=NULL;
     12          
     13          static IMGHDR  statusbar_st;
     14          static IMGHDR  headline_st;
     15          static IMGHDR  body_st;
     16          static IMGHDR  bottom_st;
     17          static IMGHDR  popup_feedback;
     18          static IMGHDR  sel_2line;
     19          static IMGHDR  sel_1line;
     20          
     21          //text color
     22          static int color_my_header=NULL;
     23          static int color_my_feedback=NULL;
     24          static int color_my_softkey=NULL;
     25          static int color_my_edit_hdr=NULL;
     26          static int color_my_edit=NULL;
     27          static int color_my_menu_sel=NULL;
     28          static int color_my_menu=NULL;
     29          
     30          static int color_header;
     31          static int color_feedback;
     32          static int color_softkey;
     33          static int color_edit_hdr;
     34          static int color_edit;
     35          static int color_menu_sel;
     36          static int color_menu;
     37          
     38          extern const char APP_DIR[];
     39          

   \                                 In segment CODE, align 4, keep-with-next
     40          void LoadDynTheme()
     41          {
     42            char path[128];
     43            
     44            if (CFG_ENA_THEME == 0)
   \                     LoadDynTheme:
   \   00000000   ........           LDR      R0,??DataTable6  ;; CFG_ENA_THEME
   \   00000004   70402DE9           PUSH     {R4-R6,LR}
   \   00000008   80D04DE2           SUB      SP,SP,#+128
   \   0000000C   000090E5           LDR      R0,[R0, #+0]
   \   00000010   000050E3           CMP      R0,#+0
   \   00000014   C900000A           BEQ      ??LoadDynTheme_0
     45              return;  
     46          
     47          #ifdef ELKA
     48            if(!my_statusbar_st)
   \   00000018   ........           LDR      R4,??DataTable7  ;; my_statusbar_st
   \   0000001C   24539FE5           LDR      R5,??LoadDynTheme_1  ;; `?<Constant "%stheme\\\\sel_1line.png">`
   \   00000020   000094E5           LDR      R0,[R4, #+0]
   \   00000024   20639FE5           LDR      R6,??LoadDynTheme_1+0x4  ;; APP_DIR
   \   00000028   000050E3           CMP      R0,#+0
   \   0000002C   0E00001A           BNE      ??LoadDynTheme_2
     49            {
     50              memcpy(&statusbar_st, GetIMGHDRFromThemeCache(STATUSBAR_STANDART), sizeof(IMGHDR));
   \   00000030   1100A0E3           MOV      R0,#+17
   \   00000034   E00200EF           SWI      +736
   \   00000038   0C20A0E3           MOV      R2,#+12
   \   0000003C   0010A0E1           MOV      R1,R0
   \   00000040   380084E2           ADD      R0,R4,#+56
   \   00000044   1E0100EF           SWI      +286
     51              snprintf(path, 127, "%stheme\\statusbar_standart.png", APP_DIR);
   \   00000048   0630A0E1           MOV      R3,R6
   \   0000004C   702085E2           ADD      R2,R5,#+112
   \   00000050   7F10A0E3           MOV      R1,#+127
   \   00000054   0D00A0E1           MOV      R0,SP
   \   00000058   1B0100EF           SWI      +283
     52              my_statusbar_st=CreateIMGHDRFromPngFile(path, 2);
   \   0000005C   0210A0E3           MOV      R1,#+2
   \   00000060   0D00A0E1           MOV      R0,SP
   \   00000064   E90100EF           SWI      +489
   \   00000068   000084E5           STR      R0,[R4, #+0]
     53            }
     54          #endif 
     55          
     56          #ifdef NEWSGOLD    
     57            if(!my_headline_st)
   \                     ??LoadDynTheme_2:
   \   0000006C   040094E5           LDR      R0,[R4, #+4]
   \   00000070   000050E3           CMP      R0,#+0
   \   00000074   0D00001A           BNE      ??LoadDynTheme_3
     58            {
     59              memcpy(&headline_st, GetIMGHDRFromThemeCache(HEADLINE_STANDART), sizeof(IMGHDR));
   \   00000078   E00200EF           SWI      +736
   \   0000007C   0010A0E1           MOV      R1,R0
   \   00000080   0C20A0E3           MOV      R2,#+12
   \   00000084   440084E2           ADD      R0,R4,#+68
   \   00000088   1E0100EF           SWI      +286
     60              snprintf(path, 127, "%stheme\\headline_standart.png", APP_DIR);
   \   0000008C   0630A0E1           MOV      R3,R6
   \   00000090   502085E2           ADD      R2,R5,#+80
   \   00000094   7F10A0E3           MOV      R1,#+127
   \   00000098   0D00A0E1           MOV      R0,SP
   \   0000009C   1B0100EF           SWI      +283
     61              my_headline_st=CreateIMGHDRFromPngFile(path, 2);
   \   000000A0   0210A0E3           MOV      R1,#+2
   \   000000A4   0D00A0E1           MOV      R0,SP
   \   000000A8   E90100EF           SWI      +489
   \   000000AC   040084E5           STR      R0,[R4, #+4]
     62            }
     63            
     64            if(!my_body_st)
   \                     ??LoadDynTheme_3:
   \   000000B0   080094E5           LDR      R0,[R4, #+8]
   \   000000B4   000050E3           CMP      R0,#+0
   \   000000B8   0E00001A           BNE      ??LoadDynTheme_4
     65            {
     66              memcpy(&body_st, GetIMGHDRFromThemeCache(BODY_STANDART), sizeof(IMGHDR));
   \   000000BC   0200A0E3           MOV      R0,#+2
   \   000000C0   E00200EF           SWI      +736
   \   000000C4   0C20A0E3           MOV      R2,#+12
   \   000000C8   0010A0E1           MOV      R1,R0
   \   000000CC   500084E2           ADD      R0,R4,#+80
   \   000000D0   1E0100EF           SWI      +286
     67              snprintf(path, 127, "%stheme\\body_standart.png", APP_DIR);
   \   000000D4   0630A0E1           MOV      R3,R6
   \   000000D8   342085E2           ADD      R2,R5,#+52
   \   000000DC   7F10A0E3           MOV      R1,#+127
   \   000000E0   0D00A0E1           MOV      R0,SP
   \   000000E4   1B0100EF           SWI      +283
     68              my_body_st=CreateIMGHDRFromPngFile(path, 2);
   \   000000E8   0210A0E3           MOV      R1,#+2
   \   000000EC   0D00A0E1           MOV      R0,SP
   \   000000F0   E90100EF           SWI      +489
   \   000000F4   080084E5           STR      R0,[R4, #+8]
     69            }
     70            
     71            if(!my_bottom_st)
   \                     ??LoadDynTheme_4:
   \   000000F8   0C0094E5           LDR      R0,[R4, #+12]
   \   000000FC   000050E3           CMP      R0,#+0
   \   00000100   0E00001A           BNE      ??LoadDynTheme_5
     72            {
     73              memcpy(&bottom_st, GetIMGHDRFromThemeCache(BOTTOM_STANDART), sizeof(IMGHDR));
   \   00000104   0400A0E3           MOV      R0,#+4
   \   00000108   E00200EF           SWI      +736
   \   0000010C   0C20A0E3           MOV      R2,#+12
   \   00000110   0010A0E1           MOV      R1,R0
   \   00000114   5C0084E2           ADD      R0,R4,#+92
   \   00000118   1E0100EF           SWI      +286
     74              snprintf(path, 127, "%stheme\\bottom_standart.png", APP_DIR);
   \   0000011C   0630A0E1           MOV      R3,R6
   \   00000120   182085E2           ADD      R2,R5,#+24
   \   00000124   7F10A0E3           MOV      R1,#+127
   \   00000128   0D00A0E1           MOV      R0,SP
   \   0000012C   1B0100EF           SWI      +283
     75              my_bottom_st=CreateIMGHDRFromPngFile(path, 2);
   \   00000130   0210A0E3           MOV      R1,#+2
   \   00000134   0D00A0E1           MOV      R0,SP
   \   00000138   E90100EF           SWI      +489
   \   0000013C   0C0084E5           STR      R0,[R4, #+12]
     76            }
     77            
     78            if(!my_popup_feedback)
   \                     ??LoadDynTheme_5:
   \   00000140   100094E5           LDR      R0,[R4, #+16]
   \   00000144   000050E3           CMP      R0,#+0
   \   00000148   0E00001A           BNE      ??LoadDynTheme_6
     79            {
     80              memcpy(&popup_feedback, GetIMGHDRFromThemeCache(POPUP_FEEDBACK), sizeof(IMGHDR));
   \   0000014C   0700A0E3           MOV      R0,#+7
   \   00000150   E00200EF           SWI      +736
   \   00000154   0C20A0E3           MOV      R2,#+12
   \   00000158   0010A0E1           MOV      R1,R0
   \   0000015C   680084E2           ADD      R0,R4,#+104
   \   00000160   1E0100EF           SWI      +286
     81              snprintf(path, 127, "%stheme\\popup_feedback.png", APP_DIR);
   \   00000164   0630A0E1           MOV      R3,R6
   \   00000168   A82085E2           ADD      R2,R5,#+168
   \   0000016C   7F10A0E3           MOV      R1,#+127
   \   00000170   0D00A0E1           MOV      R0,SP
   \   00000174   1B0100EF           SWI      +283
     82              my_popup_feedback=CreateIMGHDRFromPngFile(path, 2);
   \   00000178   0210A0E3           MOV      R1,#+2
   \   0000017C   0D00A0E1           MOV      R0,SP
   \   00000180   E90100EF           SWI      +489
   \   00000184   100084E5           STR      R0,[R4, #+16]
     83            }
     84          
     85            if(!my_sel_2line)
   \                     ??LoadDynTheme_6:
   \   00000188   140094E5           LDR      R0,[R4, #+20]
   \   0000018C   000050E3           CMP      R0,#+0
   \   00000190   0E00001A           BNE      ??LoadDynTheme_7
     86            {
     87              memcpy(&sel_2line, GetIMGHDRFromThemeCache(SELECTION_2_LINE), sizeof(IMGHDR));
   \   00000194   0900A0E3           MOV      R0,#+9
   \   00000198   E00200EF           SWI      +736
   \   0000019C   0C20A0E3           MOV      R2,#+12
   \   000001A0   0010A0E1           MOV      R1,R0
   \   000001A4   740084E2           ADD      R0,R4,#+116
   \   000001A8   1E0100EF           SWI      +286
     88              snprintf(path, 127, "%stheme\\sel_2line.png", APP_DIR);
   \   000001AC   0630A0E1           MOV      R3,R6
   \   000001B0   902085E2           ADD      R2,R5,#+144
   \   000001B4   7F10A0E3           MOV      R1,#+127
   \   000001B8   0D00A0E1           MOV      R0,SP
   \   000001BC   1B0100EF           SWI      +283
     89              my_sel_2line=CreateIMGHDRFromPngFile(path, 2);
   \   000001C0   0210A0E3           MOV      R1,#+2
   \   000001C4   0D00A0E1           MOV      R0,SP
   \   000001C8   E90100EF           SWI      +489
   \   000001CC   140084E5           STR      R0,[R4, #+20]
     90            }
     91          
     92            if(!my_sel_1line)
   \                     ??LoadDynTheme_7:
   \   000001D0   180094E5           LDR      R0,[R4, #+24]
   \   000001D4   000050E3           CMP      R0,#+0
   \   000001D8   0E00001A           BNE      ??LoadDynTheme_8
     93            {
     94              memcpy(&sel_1line, GetIMGHDRFromThemeCache(SELECTION_1_LINE), sizeof(IMGHDR));
   \   000001DC   0800A0E3           MOV      R0,#+8
   \   000001E0   E00200EF           SWI      +736
   \   000001E4   0C20A0E3           MOV      R2,#+12
   \   000001E8   0010A0E1           MOV      R1,R0
   \   000001EC   800084E2           ADD      R0,R4,#+128
   \   000001F0   1E0100EF           SWI      +286
     95              snprintf(path, 127, "%stheme\\sel_1line.png", APP_DIR);
   \   000001F4   0630A0E1           MOV      R3,R6
   \   000001F8   0520A0E1           MOV      R2,R5
   \   000001FC   7F10A0E3           MOV      R1,#+127
   \   00000200   0D00A0E1           MOV      R0,SP
   \   00000204   1B0100EF           SWI      +283
     96              my_sel_1line=CreateIMGHDRFromPngFile(path, 2);
   \   00000208   0210A0E3           MOV      R1,#+2
   \   0000020C   0D00A0E1           MOV      R0,SP
   \   00000210   E90100EF           SWI      +489
   \   00000214   180084E5           STR      R0,[R4, #+24]
     97            }
     98          #endif
     99            
    100            if(!color_my_edit_hdr)
   \                     ??LoadDynTheme_8:
   \   00000218   280094E5           LDR      R0,[R4, #+40]
   \   0000021C   000050E3           CMP      R0,#+0
   \   00000220   0700001A           BNE      ??LoadDynTheme_9
    101            {
    102              color_my_edit_hdr=0x64808080;//серый
   \   00000224   24019FE5           LDR      R0,??LoadDynTheme_1+0x8  ;; 0x64808080
   \   00000228   280084E5           STR      R0,[R4, #+40]
    103              memcpy(&color_edit_hdr, GetPaletteAdrByColorIndex(155), 4);
   \   0000022C   9B00A0E3           MOV      R0,#+155
   \   00000230   2E0100EF           SWI      +302
   \   00000234   0420A0E3           MOV      R2,#+4
   \   00000238   0010A0E1           MOV      R1,R0
   \   0000023C   980084E2           ADD      R0,R4,#+152
   \   00000240   1E0100EF           SWI      +286
    104            }
    105            
    106            if(!color_my_edit)
   \                     ??LoadDynTheme_9:
   \   00000244   2C0094E5           LDR      R0,[R4, #+44]
   \   00000248   6454A0E3           MOV      R5,#+1677721600
   \   0000024C   000050E3           CMP      R0,#+0
   \   00000250   0600001A           BNE      ??LoadDynTheme_10
    107            {
    108              color_my_edit=0x64000000;//черный
   \   00000254   2C5084E5           STR      R5,[R4, #+44]
    109              memcpy(&color_edit, GetPaletteAdrByColorIndex(156), 4);
   \   00000258   9C00A0E3           MOV      R0,#+156
   \   0000025C   2E0100EF           SWI      +302
   \   00000260   0420A0E3           MOV      R2,#+4
   \   00000264   0010A0E1           MOV      R1,R0
   \   00000268   9C0084E2           ADD      R0,R4,#+156
   \   0000026C   1E0100EF           SWI      +286
    110            }
    111            
    112            if(!color_my_feedback)
   \                     ??LoadDynTheme_10:
   \   00000270   200094E5           LDR      R0,[R4, #+32]
   \   00000274   000050E3           CMP      R0,#+0
   \   00000278   0600001A           BNE      ??LoadDynTheme_11
    113            {
    114              color_my_feedback=0x64000000;//черный
   \   0000027C   205084E5           STR      R5,[R4, #+32]
    115              memcpy(&color_feedback, GetPaletteAdrByColorIndex(129), 4);
   \   00000280   8100A0E3           MOV      R0,#+129
   \   00000284   2E0100EF           SWI      +302
   \   00000288   0420A0E3           MOV      R2,#+4
   \   0000028C   0010A0E1           MOV      R1,R0
   \   00000290   900084E2           ADD      R0,R4,#+144
   \   00000294   1E0100EF           SWI      +286
    116            }
    117            
    118            if(!color_my_header)
   \                     ??LoadDynTheme_11:
   \   00000298   1C0094E5           LDR      R0,[R4, #+28]
   \   0000029C   9B54E0E3           MVN      R5,#-1694498816
   \   000002A0   000050E3           CMP      R0,#+0
   \   000002A4   0600001A           BNE      ??LoadDynTheme_12
    119            {
    120              color_my_header=0x64FFFFFF;//белый
   \   000002A8   1C5084E5           STR      R5,[R4, #+28]
    121              memcpy(&color_header, GetPaletteAdrByColorIndex(102), 4);
   \   000002AC   6600A0E3           MOV      R0,#+102
   \   000002B0   2E0100EF           SWI      +302
   \   000002B4   0420A0E3           MOV      R2,#+4
   \   000002B8   0010A0E1           MOV      R1,R0
   \   000002BC   8C0084E2           ADD      R0,R4,#+140
   \   000002C0   1E0100EF           SWI      +286
    122            }
    123            
    124            if(!color_my_softkey)
   \                     ??LoadDynTheme_12:
   \   000002C4   240094E5           LDR      R0,[R4, #+36]
   \   000002C8   000050E3           CMP      R0,#+0
   \   000002CC   0600001A           BNE      ??LoadDynTheme_13
    125            {
    126              color_my_softkey=0x64FFFFFF;//белый
   \   000002D0   245084E5           STR      R5,[R4, #+36]
    127              memcpy(&color_softkey, GetPaletteAdrByColorIndex(105), 4);
   \   000002D4   6900A0E3           MOV      R0,#+105
   \   000002D8   2E0100EF           SWI      +302
   \   000002DC   0420A0E3           MOV      R2,#+4
   \   000002E0   0010A0E1           MOV      R1,R0
   \   000002E4   940084E2           ADD      R0,R4,#+148
   \   000002E8   1E0100EF           SWI      +286
    128            }
    129          
    130            if(!color_my_menu)
   \                     ??LoadDynTheme_13:
   \   000002EC   340094E5           LDR      R0,[R4, #+52]
   \   000002F0   5C509FE5           LDR      R5,??LoadDynTheme_1+0xC  ;; 0x64a6805d
   \   000002F4   000050E3           CMP      R0,#+0
   \   000002F8   0600001A           BNE      ??LoadDynTheme_14
    131            {
    132              color_my_menu=0x64A6805D;//вк-синий
   \   000002FC   345084E5           STR      R5,[R4, #+52]
    133              memcpy(&color_menu, GetPaletteAdrByColorIndex(119), 4);
   \   00000300   7700A0E3           MOV      R0,#+119
   \   00000304   2E0100EF           SWI      +302
   \   00000308   0420A0E3           MOV      R2,#+4
   \   0000030C   0010A0E1           MOV      R1,R0
   \   00000310   A40084E2           ADD      R0,R4,#+164
   \   00000314   1E0100EF           SWI      +286
    134            }
    135            
    136            if(!color_my_menu_sel)
   \                     ??LoadDynTheme_14:
   \   00000318   300094E5           LDR      R0,[R4, #+48]
   \   0000031C   000050E3           CMP      R0,#+0
   \   00000320   0600001A           BNE      ??LoadDynTheme_0
    137            {
    138              color_my_menu_sel=0x64A6805D;//вк-синий
   \   00000324   305084E5           STR      R5,[R4, #+48]
    139              memcpy(&color_menu_sel, GetPaletteAdrByColorIndex(115), 4);
   \   00000328   7300A0E3           MOV      R0,#+115
   \   0000032C   2E0100EF           SWI      +302
   \   00000330   0420A0E3           MOV      R2,#+4
   \   00000334   0010A0E1           MOV      R1,R0
   \   00000338   A00084E2           ADD      R0,R4,#+160
   \   0000033C   1E0100EF           SWI      +286
   \                     ??LoadDynTheme_0:
   \   00000340   80D08DE2           ADD      SP,SP,#+128      ;; stack cleaning
   \   00000344   7080BDE8           POP      {R4-R6,PC}       ;; return
   \                     ??LoadDynTheme_1:
   \   00000348   ........           DC32     `?<Constant "%stheme\\\\sel_1line.png">`
   \   0000034C   ........           DC32     APP_DIR
   \   00000350   80808064           DC32     0x64808080
   \   00000354   5D80A664           DC32     0x64a6805d
    140            }
    141          
    142            
    143          }
    144          

   \                                 In segment CODE, align 4, keep-with-next
    145          void EnableDynTheme()
    146          {
    147            if (CFG_ENA_THEME == 0)
   \                     EnableDynTheme:
   \   00000000   ........           LDR      R0,??DataTable6  ;; CFG_ENA_THEME
   \   00000004   10402DE9           PUSH     {R4,LR}
   \   00000008   000090E5           LDR      R0,[R0, #+0]
   \   0000000C   000050E3           CMP      R0,#+0
   \   00000010   1080BD08           POPEQ    {R4,PC}
    148              return;
    149            
    150          #ifdef ELKA  
    151            if(my_statusbar_st)
   \   00000014   ........           LDR      R4,??DataTable7  ;; my_statusbar_st
   \   00000018   000094E5           LDR      R0,[R4, #+0]
   \   0000001C   000050E3           CMP      R0,#+0
   \   00000020   0400000A           BEQ      ??EnableDynTheme_0
    152              memcpy(GetIMGHDRFromThemeCache(STATUSBAR_STANDART), my_statusbar_st, sizeof(IMGHDR));
   \   00000024   1100A0E3           MOV      R0,#+17
   \   00000028   E00200EF           SWI      +736
   \   0000002C   001094E5           LDR      R1,[R4, #+0]
   \   00000030   0C20A0E3           MOV      R2,#+12
   \   00000034   1E0100EF           SWI      +286
    153          #endif
    154          #ifdef NEWSGOLD    
    155            if(my_headline_st)
   \                     ??EnableDynTheme_0:
   \   00000038   040094E5           LDR      R0,[R4, #+4]
   \   0000003C   000050E3           CMP      R0,#+0
   \   00000040   0400000A           BEQ      ??EnableDynTheme_1
    156              memcpy(GetIMGHDRFromThemeCache(HEADLINE_STANDART), my_headline_st, sizeof(IMGHDR));
   \   00000044   0000A0E3           MOV      R0,#+0
   \   00000048   E00200EF           SWI      +736
   \   0000004C   041094E5           LDR      R1,[R4, #+4]
   \   00000050   0C20A0E3           MOV      R2,#+12
   \   00000054   1E0100EF           SWI      +286
    157            if(my_body_st)
   \                     ??EnableDynTheme_1:
   \   00000058   080094E5           LDR      R0,[R4, #+8]
   \   0000005C   000050E3           CMP      R0,#+0
   \   00000060   0400000A           BEQ      ??EnableDynTheme_2
    158              memcpy(GetIMGHDRFromThemeCache(BODY_STANDART), my_body_st, sizeof(IMGHDR));
   \   00000064   0200A0E3           MOV      R0,#+2
   \   00000068   E00200EF           SWI      +736
   \   0000006C   081094E5           LDR      R1,[R4, #+8]
   \   00000070   0C20A0E3           MOV      R2,#+12
   \   00000074   1E0100EF           SWI      +286
    159            if(my_bottom_st)
   \                     ??EnableDynTheme_2:
   \   00000078   0C0094E5           LDR      R0,[R4, #+12]
   \   0000007C   000050E3           CMP      R0,#+0
   \   00000080   0400000A           BEQ      ??EnableDynTheme_3
    160              memcpy(GetIMGHDRFromThemeCache(BOTTOM_STANDART), my_bottom_st, sizeof(IMGHDR));
   \   00000084   0400A0E3           MOV      R0,#+4
   \   00000088   E00200EF           SWI      +736
   \   0000008C   0C1094E5           LDR      R1,[R4, #+12]
   \   00000090   0C20A0E3           MOV      R2,#+12
   \   00000094   1E0100EF           SWI      +286
    161            if(my_popup_feedback)
   \                     ??EnableDynTheme_3:
   \   00000098   100094E5           LDR      R0,[R4, #+16]
   \   0000009C   000050E3           CMP      R0,#+0
   \   000000A0   0400000A           BEQ      ??EnableDynTheme_4
    162              memcpy(GetIMGHDRFromThemeCache(POPUP_FEEDBACK), my_popup_feedback, sizeof(IMGHDR));
   \   000000A4   0700A0E3           MOV      R0,#+7
   \   000000A8   E00200EF           SWI      +736
   \   000000AC   101094E5           LDR      R1,[R4, #+16]
   \   000000B0   0C20A0E3           MOV      R2,#+12
   \   000000B4   1E0100EF           SWI      +286
    163            if(my_sel_2line)
   \                     ??EnableDynTheme_4:
   \   000000B8   140094E5           LDR      R0,[R4, #+20]
   \   000000BC   000050E3           CMP      R0,#+0
   \   000000C0   0400000A           BEQ      ??EnableDynTheme_5
    164              memcpy(GetIMGHDRFromThemeCache(SELECTION_2_LINE), my_sel_2line, sizeof(IMGHDR));
   \   000000C4   0900A0E3           MOV      R0,#+9
   \   000000C8   E00200EF           SWI      +736
   \   000000CC   141094E5           LDR      R1,[R4, #+20]
   \   000000D0   0C20A0E3           MOV      R2,#+12
   \   000000D4   1E0100EF           SWI      +286
    165            if(my_sel_1line)
   \                     ??EnableDynTheme_5:
   \   000000D8   180094E5           LDR      R0,[R4, #+24]
   \   000000DC   000050E3           CMP      R0,#+0
   \   000000E0   0400000A           BEQ      ??EnableDynTheme_6
    166              memcpy(GetIMGHDRFromThemeCache(SELECTION_1_LINE), my_sel_1line, sizeof(IMGHDR));
   \   000000E4   0800A0E3           MOV      R0,#+8
   \   000000E8   E00200EF           SWI      +736
   \   000000EC   181094E5           LDR      R1,[R4, #+24]
   \   000000F0   0C20A0E3           MOV      R2,#+12
   \   000000F4   1E0100EF           SWI      +286
    167          #endif
    168            
    169            if(color_my_edit_hdr)
   \                     ??EnableDynTheme_6:
   \   000000F8   280094E5           LDR      R0,[R4, #+40]
   \   000000FC   000050E3           CMP      R0,#+0
   \   00000100   0400000A           BEQ      ??EnableDynTheme_7
    170              memcpy(GetPaletteAdrByColorIndex(155), &color_my_edit_hdr, 4);
   \   00000104   9B00A0E3           MOV      R0,#+155
   \   00000108   2E0100EF           SWI      +302
   \   0000010C   0420A0E3           MOV      R2,#+4
   \   00000110   281084E2           ADD      R1,R4,#+40
   \   00000114   1E0100EF           SWI      +286
    171            
    172            if(color_my_edit)
   \                     ??EnableDynTheme_7:
   \   00000118   2C0094E5           LDR      R0,[R4, #+44]
   \   0000011C   000050E3           CMP      R0,#+0
   \   00000120   0400000A           BEQ      ??EnableDynTheme_8
    173              memcpy(GetPaletteAdrByColorIndex(156), &color_my_edit, 4);
   \   00000124   9C00A0E3           MOV      R0,#+156
   \   00000128   2E0100EF           SWI      +302
   \   0000012C   0420A0E3           MOV      R2,#+4
   \   00000130   2C1084E2           ADD      R1,R4,#+44
   \   00000134   1E0100EF           SWI      +286
    174            
    175            if(color_my_feedback)
   \                     ??EnableDynTheme_8:
   \   00000138   200094E5           LDR      R0,[R4, #+32]
   \   0000013C   000050E3           CMP      R0,#+0
   \   00000140   0400000A           BEQ      ??EnableDynTheme_9
    176              memcpy(GetPaletteAdrByColorIndex(129), &color_my_feedback, 4);
   \   00000144   8100A0E3           MOV      R0,#+129
   \   00000148   2E0100EF           SWI      +302
   \   0000014C   0420A0E3           MOV      R2,#+4
   \   00000150   201084E2           ADD      R1,R4,#+32
   \   00000154   1E0100EF           SWI      +286
    177            
    178            if(color_my_header)
   \                     ??EnableDynTheme_9:
   \   00000158   1C0094E5           LDR      R0,[R4, #+28]
   \   0000015C   000050E3           CMP      R0,#+0
   \   00000160   0400000A           BEQ      ??EnableDynTheme_10
    179              memcpy(GetPaletteAdrByColorIndex(102), &color_my_header, 4);
   \   00000164   6600A0E3           MOV      R0,#+102
   \   00000168   2E0100EF           SWI      +302
   \   0000016C   0420A0E3           MOV      R2,#+4
   \   00000170   1C1084E2           ADD      R1,R4,#+28
   \   00000174   1E0100EF           SWI      +286
    180          
    181            if(color_my_softkey)
   \                     ??EnableDynTheme_10:
   \   00000178   240094E5           LDR      R0,[R4, #+36]
   \   0000017C   000050E3           CMP      R0,#+0
   \   00000180   0400000A           BEQ      ??EnableDynTheme_11
    182              memcpy(GetPaletteAdrByColorIndex(105), &color_my_softkey, 4);
   \   00000184   6900A0E3           MOV      R0,#+105
   \   00000188   2E0100EF           SWI      +302
   \   0000018C   0420A0E3           MOV      R2,#+4
   \   00000190   241084E2           ADD      R1,R4,#+36
   \   00000194   1E0100EF           SWI      +286
    183            
    184            if(color_my_menu)
   \                     ??EnableDynTheme_11:
   \   00000198   340094E5           LDR      R0,[R4, #+52]
   \   0000019C   000050E3           CMP      R0,#+0
   \   000001A0   0400000A           BEQ      ??EnableDynTheme_12
    185              memcpy(GetPaletteAdrByColorIndex(119), &color_my_menu, 4);
   \   000001A4   7700A0E3           MOV      R0,#+119
   \   000001A8   2E0100EF           SWI      +302
   \   000001AC   0420A0E3           MOV      R2,#+4
   \   000001B0   341084E2           ADD      R1,R4,#+52
   \   000001B4   1E0100EF           SWI      +286
    186            
    187            if(color_my_menu_sel)
   \                     ??EnableDynTheme_12:
   \   000001B8   300094E5           LDR      R0,[R4, #+48]
   \   000001BC   000050E3           CMP      R0,#+0
   \   000001C0   1080BD08           POPEQ    {R4,PC}
    188              memcpy(GetPaletteAdrByColorIndex(115), &color_my_menu_sel, 4);  
   \   000001C4   7300A0E3           MOV      R0,#+115
   \   000001C8   2E0100EF           SWI      +302
   \   000001CC   0420A0E3           MOV      R2,#+4
   \   000001D0   301084E2           ADD      R1,R4,#+48
   \   000001D4   ........           B        ?Subroutine4
    189            
    190          }

   \                                 In segment CODE, align 4, keep-with-next
   \                     ?Subroutine4:
   \   00000000   1E0100EF           SWI      +286
   \   00000004   1080BDE8           POP      {R4,PC}          ;; return
    191          

   \                                 In segment CODE, align 4, keep-with-next
    192          void DisableDynTheme()
    193          {
    194            if (CFG_ENA_THEME == 0)
   \                     DisableDynTheme:
   \   00000000   ........           LDR      R0,??DataTable6  ;; CFG_ENA_THEME
   \   00000004   10402DE9           PUSH     {R4,LR}
   \   00000008   000090E5           LDR      R0,[R0, #+0]
   \   0000000C   000050E3           CMP      R0,#+0
   \   00000010   1080BD08           POPEQ    {R4,PC}
    195              return;
    196              
    197          #ifdef ELKA  
    198            if(my_statusbar_st)
   \   00000014   ........           LDR      R4,??DataTable7  ;; my_statusbar_st
   \   00000018   000094E5           LDR      R0,[R4, #+0]
   \   0000001C   000050E3           CMP      R0,#+0
   \   00000020   0400000A           BEQ      ??DisableDynTheme_0
    199              memcpy(GetIMGHDRFromThemeCache(STATUSBAR_STANDART), &statusbar_st, sizeof(IMGHDR));
   \   00000024   1100A0E3           MOV      R0,#+17
   \   00000028   E00200EF           SWI      +736
   \   0000002C   0C20A0E3           MOV      R2,#+12
   \   00000030   381084E2           ADD      R1,R4,#+56
   \   00000034   1E0100EF           SWI      +286
    200          #endif
    201          #ifdef NEWSGOLD    
    202            if(my_headline_st)
   \                     ??DisableDynTheme_0:
   \   00000038   040094E5           LDR      R0,[R4, #+4]
   \   0000003C   000050E3           CMP      R0,#+0
   \   00000040   0400000A           BEQ      ??DisableDynTheme_1
    203              memcpy(GetIMGHDRFromThemeCache(HEADLINE_STANDART), &headline_st, sizeof(IMGHDR));
   \   00000044   0000A0E3           MOV      R0,#+0
   \   00000048   E00200EF           SWI      +736
   \   0000004C   0C20A0E3           MOV      R2,#+12
   \   00000050   441084E2           ADD      R1,R4,#+68
   \   00000054   1E0100EF           SWI      +286
    204            if(my_body_st)
   \                     ??DisableDynTheme_1:
   \   00000058   080094E5           LDR      R0,[R4, #+8]
   \   0000005C   000050E3           CMP      R0,#+0
   \   00000060   0400000A           BEQ      ??DisableDynTheme_2
    205              memcpy(GetIMGHDRFromThemeCache(BODY_STANDART), &body_st, sizeof(IMGHDR));
   \   00000064   0200A0E3           MOV      R0,#+2
   \   00000068   E00200EF           SWI      +736
   \   0000006C   0C20A0E3           MOV      R2,#+12
   \   00000070   501084E2           ADD      R1,R4,#+80
   \   00000074   1E0100EF           SWI      +286
    206            if(my_bottom_st)
   \                     ??DisableDynTheme_2:
   \   00000078   0C0094E5           LDR      R0,[R4, #+12]
   \   0000007C   000050E3           CMP      R0,#+0
   \   00000080   0400000A           BEQ      ??DisableDynTheme_3
    207              memcpy(GetIMGHDRFromThemeCache(BOTTOM_STANDART), &bottom_st, sizeof(IMGHDR));
   \   00000084   0400A0E3           MOV      R0,#+4
   \   00000088   E00200EF           SWI      +736
   \   0000008C   0C20A0E3           MOV      R2,#+12
   \   00000090   5C1084E2           ADD      R1,R4,#+92
   \   00000094   1E0100EF           SWI      +286
    208            if(my_popup_feedback)
   \                     ??DisableDynTheme_3:
   \   00000098   100094E5           LDR      R0,[R4, #+16]
   \   0000009C   000050E3           CMP      R0,#+0
   \   000000A0   0400000A           BEQ      ??DisableDynTheme_4
    209              memcpy(GetIMGHDRFromThemeCache(POPUP_FEEDBACK), &popup_feedback, sizeof(IMGHDR));
   \   000000A4   0700A0E3           MOV      R0,#+7
   \   000000A8   E00200EF           SWI      +736
   \   000000AC   0C20A0E3           MOV      R2,#+12
   \   000000B0   681084E2           ADD      R1,R4,#+104
   \   000000B4   1E0100EF           SWI      +286
    210            if(my_sel_2line)
   \                     ??DisableDynTheme_4:
   \   000000B8   140094E5           LDR      R0,[R4, #+20]
   \   000000BC   000050E3           CMP      R0,#+0
   \   000000C0   0400000A           BEQ      ??DisableDynTheme_5
    211              memcpy(GetIMGHDRFromThemeCache(SELECTION_2_LINE), &sel_2line, sizeof(IMGHDR));
   \   000000C4   0900A0E3           MOV      R0,#+9
   \   000000C8   E00200EF           SWI      +736
   \   000000CC   0C20A0E3           MOV      R2,#+12
   \   000000D0   741084E2           ADD      R1,R4,#+116
   \   000000D4   1E0100EF           SWI      +286
    212            if(my_sel_1line)
   \                     ??DisableDynTheme_5:
   \   000000D8   180094E5           LDR      R0,[R4, #+24]
   \   000000DC   000050E3           CMP      R0,#+0
   \   000000E0   0400000A           BEQ      ??DisableDynTheme_6
    213              memcpy(GetIMGHDRFromThemeCache(SELECTION_1_LINE), &sel_1line, sizeof(IMGHDR)); 
   \   000000E4   0800A0E3           MOV      R0,#+8
   \   000000E8   E00200EF           SWI      +736
   \   000000EC   0C20A0E3           MOV      R2,#+12
   \   000000F0   801084E2           ADD      R1,R4,#+128
   \   000000F4   1E0100EF           SWI      +286
    214          #endif
    215            
    216            if(color_my_edit_hdr)
   \                     ??DisableDynTheme_6:
   \   000000F8   280094E5           LDR      R0,[R4, #+40]
   \   000000FC   000050E3           CMP      R0,#+0
   \   00000100   0400000A           BEQ      ??DisableDynTheme_7
    217              memcpy(GetPaletteAdrByColorIndex(155), &color_edit_hdr, 4);  
   \   00000104   9B00A0E3           MOV      R0,#+155
   \   00000108   2E0100EF           SWI      +302
   \   0000010C   0420A0E3           MOV      R2,#+4
   \   00000110   981084E2           ADD      R1,R4,#+152
   \   00000114   1E0100EF           SWI      +286
    218            
    219            if(color_my_edit)
   \                     ??DisableDynTheme_7:
   \   00000118   2C0094E5           LDR      R0,[R4, #+44]
   \   0000011C   000050E3           CMP      R0,#+0
   \   00000120   0400000A           BEQ      ??DisableDynTheme_8
    220              memcpy(GetPaletteAdrByColorIndex(156), &color_edit, 4);
   \   00000124   9C00A0E3           MOV      R0,#+156
   \   00000128   2E0100EF           SWI      +302
   \   0000012C   0420A0E3           MOV      R2,#+4
   \   00000130   9C1084E2           ADD      R1,R4,#+156
   \   00000134   1E0100EF           SWI      +286
    221            
    222            if(color_my_feedback)
   \                     ??DisableDynTheme_8:
   \   00000138   200094E5           LDR      R0,[R4, #+32]
   \   0000013C   000050E3           CMP      R0,#+0
   \   00000140   0400000A           BEQ      ??DisableDynTheme_9
    223              memcpy(GetPaletteAdrByColorIndex(129), &color_feedback, 4);
   \   00000144   8100A0E3           MOV      R0,#+129
   \   00000148   2E0100EF           SWI      +302
   \   0000014C   0420A0E3           MOV      R2,#+4
   \   00000150   901084E2           ADD      R1,R4,#+144
   \   00000154   1E0100EF           SWI      +286
    224          
    225            if(color_my_header)
   \                     ??DisableDynTheme_9:
   \   00000158   1C0094E5           LDR      R0,[R4, #+28]
   \   0000015C   000050E3           CMP      R0,#+0
   \   00000160   0400000A           BEQ      ??DisableDynTheme_10
    226              memcpy(GetPaletteAdrByColorIndex(102), &color_header, 4);
   \   00000164   6600A0E3           MOV      R0,#+102
   \   00000168   2E0100EF           SWI      +302
   \   0000016C   0420A0E3           MOV      R2,#+4
   \   00000170   8C1084E2           ADD      R1,R4,#+140
   \   00000174   1E0100EF           SWI      +286
    227            
    228            if(color_my_softkey)
   \                     ??DisableDynTheme_10:
   \   00000178   240094E5           LDR      R0,[R4, #+36]
   \   0000017C   000050E3           CMP      R0,#+0
   \   00000180   0400000A           BEQ      ??DisableDynTheme_11
    229              memcpy(GetPaletteAdrByColorIndex(105), &color_softkey, 4);
   \   00000184   6900A0E3           MOV      R0,#+105
   \   00000188   2E0100EF           SWI      +302
   \   0000018C   0420A0E3           MOV      R2,#+4
   \   00000190   941084E2           ADD      R1,R4,#+148
   \   00000194   1E0100EF           SWI      +286
    230            
    231            if(color_my_menu)
   \                     ??DisableDynTheme_11:
   \   00000198   340094E5           LDR      R0,[R4, #+52]
   \   0000019C   000050E3           CMP      R0,#+0
   \   000001A0   0400000A           BEQ      ??DisableDynTheme_12
    232              memcpy(GetPaletteAdrByColorIndex(119), &color_menu, 4); 
   \   000001A4   7700A0E3           MOV      R0,#+119
   \   000001A8   2E0100EF           SWI      +302
   \   000001AC   0420A0E3           MOV      R2,#+4
   \   000001B0   A41084E2           ADD      R1,R4,#+164
   \   000001B4   1E0100EF           SWI      +286
    233            
    234            if(color_my_menu_sel)
   \                     ??DisableDynTheme_12:
   \   000001B8   300094E5           LDR      R0,[R4, #+48]
   \   000001BC   000050E3           CMP      R0,#+0
   \   000001C0   1080BD08           POPEQ    {R4,PC}
    235              memcpy(GetPaletteAdrByColorIndex(115), &color_menu_sel, 4); 
   \   000001C4   7300A0E3           MOV      R0,#+115
   \   000001C8   2E0100EF           SWI      +302
   \   000001CC   0420A0E3           MOV      R2,#+4
   \   000001D0   A01084E2           ADD      R1,R4,#+160
   \   000001D4                      REQUIRE ?Subroutine4
   \   000001D4                      ;; // Fall through to label ?Subroutine4
    236          }
    237          

   \                                 In segment CODE, align 4, keep-with-next
    238          void FreeDynTheme()
    239          {
    240            if (CFG_ENA_THEME == 0)
   \                     FreeDynTheme:
   \   00000000   ........           LDR      R0,??DataTable6  ;; CFG_ENA_THEME
   \   00000004   30402DE9           PUSH     {R4,R5,LR}
   \   00000008   000090E5           LDR      R0,[R0, #+0]
   \   0000000C   000050E3           CMP      R0,#+0
   \   00000010   3080BD08           POPEQ    {R4,R5,PC}
    241              return;
    242            
    243          #ifdef ELKA  
    244            if(my_statusbar_st)
   \   00000014   ........           LDR      R4,??DataTable7  ;; my_statusbar_st
   \   00000018   0050A0E3           MOV      R5,#+0
   \   0000001C   000094E5           LDR      R0,[R4, #+0]
   \   00000020   000050E3           CMP      R0,#+0
   \   00000024   0400000A           BEQ      ??FreeDynTheme_0
    245            {
    246              mfree(my_statusbar_st->bitmap);
   \   00000028   080090E5           LDR      R0,[R0, #+8]
   \   0000002C   150000EF           SWI      +21
    247              mfree(my_statusbar_st);
   \   00000030   000094E5           LDR      R0,[R4, #+0]
   \   00000034   150000EF           SWI      +21
    248              my_statusbar_st=NULL;
   \   00000038   005084E5           STR      R5,[R4, #+0]
    249            }
    250          #endif
    251          #ifdef NEWSGOLD    
    252            if(my_headline_st)
   \                     ??FreeDynTheme_0:
   \   0000003C   040094E5           LDR      R0,[R4, #+4]
   \   00000040   000050E3           CMP      R0,#+0
   \   00000044   0400000A           BEQ      ??FreeDynTheme_1
    253            {
    254              mfree(my_headline_st->bitmap);
   \   00000048   080090E5           LDR      R0,[R0, #+8]
   \   0000004C   150000EF           SWI      +21
    255              mfree(my_headline_st);
   \   00000050   040094E5           LDR      R0,[R4, #+4]
   \   00000054   150000EF           SWI      +21
    256              my_headline_st=NULL;
   \   00000058   045084E5           STR      R5,[R4, #+4]
    257            }
    258            
    259            if(my_body_st)
   \                     ??FreeDynTheme_1:
   \   0000005C   080094E5           LDR      R0,[R4, #+8]
   \   00000060   000050E3           CMP      R0,#+0
   \   00000064   0400000A           BEQ      ??FreeDynTheme_2
    260            {
    261              mfree(my_body_st->bitmap);
   \   00000068   080090E5           LDR      R0,[R0, #+8]
   \   0000006C   150000EF           SWI      +21
    262              mfree(my_body_st);
   \   00000070   080094E5           LDR      R0,[R4, #+8]
   \   00000074   150000EF           SWI      +21
    263              my_body_st=NULL;
   \   00000078   085084E5           STR      R5,[R4, #+8]
    264            }
    265            
    266            if(my_bottom_st)
   \                     ??FreeDynTheme_2:
   \   0000007C   0C0094E5           LDR      R0,[R4, #+12]
   \   00000080   000050E3           CMP      R0,#+0
   \   00000084   0400000A           BEQ      ??FreeDynTheme_3
    267            {
    268              mfree(my_bottom_st->bitmap);
   \   00000088   080090E5           LDR      R0,[R0, #+8]
   \   0000008C   150000EF           SWI      +21
    269              mfree(my_bottom_st);
   \   00000090   0C0094E5           LDR      R0,[R4, #+12]
   \   00000094   150000EF           SWI      +21
    270              my_bottom_st=NULL;
   \   00000098   0C5084E5           STR      R5,[R4, #+12]
    271            }
    272            
    273            if(my_popup_feedback)
   \                     ??FreeDynTheme_3:
   \   0000009C   100094E5           LDR      R0,[R4, #+16]
   \   000000A0   000050E3           CMP      R0,#+0
   \   000000A4   0400000A           BEQ      ??FreeDynTheme_4
    274            {
    275              mfree(my_popup_feedback->bitmap);
   \   000000A8   080090E5           LDR      R0,[R0, #+8]
   \   000000AC   150000EF           SWI      +21
    276              mfree(my_popup_feedback);
   \   000000B0   100094E5           LDR      R0,[R4, #+16]
   \   000000B4   150000EF           SWI      +21
    277              my_popup_feedback=NULL;
   \   000000B8   105084E5           STR      R5,[R4, #+16]
    278            }
    279            
    280            if(my_sel_2line)
   \                     ??FreeDynTheme_4:
   \   000000BC   140094E5           LDR      R0,[R4, #+20]
   \   000000C0   000050E3           CMP      R0,#+0
   \   000000C4   0400000A           BEQ      ??FreeDynTheme_5
    281            {
    282              mfree(my_sel_2line->bitmap);
   \   000000C8   080090E5           LDR      R0,[R0, #+8]
   \   000000CC   150000EF           SWI      +21
    283              mfree(my_sel_2line);
   \   000000D0   140094E5           LDR      R0,[R4, #+20]
   \   000000D4   150000EF           SWI      +21
    284              my_sel_2line=NULL;
   \   000000D8   145084E5           STR      R5,[R4, #+20]
    285            }
    286            
    287            if(my_sel_1line)
   \                     ??FreeDynTheme_5:
   \   000000DC   180094E5           LDR      R0,[R4, #+24]
   \   000000E0   000050E3           CMP      R0,#+0
   \   000000E4   0400000A           BEQ      ??FreeDynTheme_6
    288            {
    289              mfree(my_sel_1line->bitmap);
   \   000000E8   080090E5           LDR      R0,[R0, #+8]
   \   000000EC   150000EF           SWI      +21
    290              mfree(my_sel_1line);
   \   000000F0   180094E5           LDR      R0,[R4, #+24]
   \   000000F4   150000EF           SWI      +21
    291              my_sel_1line=NULL;
   \   000000F8   185084E5           STR      R5,[R4, #+24]
    292            }
    293          #endif
    294            
    295            color_my_edit_hdr=NULL;
   \                     ??FreeDynTheme_6:
   \   000000FC   285084E5           STR      R5,[R4, #+40]
    296            color_my_edit=NULL;
   \   00000100   2C5084E5           STR      R5,[R4, #+44]
    297            color_my_feedback=NULL;
   \   00000104   205084E5           STR      R5,[R4, #+32]
    298            color_my_header=NULL;
   \   00000108   1C5084E5           STR      R5,[R4, #+28]
    299            color_my_softkey=NULL;
   \   0000010C   245084E5           STR      R5,[R4, #+36]
    300            color_my_menu=NULL;
   \   00000110   345084E5           STR      R5,[R4, #+52]
    301            color_my_menu_sel=NULL;
   \   00000114   305084E5           STR      R5,[R4, #+48]
    302          }
   \   00000118   3080BDE8           POP      {R4,R5,PC}       ;; return

   \                                 In segment CODE, align 4, keep-with-next
   \                     ??DataTable6:
   \   00000000   ........           DC32     CFG_ENA_THEME

   \                                 In segment CODE, align 4, keep-with-next
   \                     ??DataTable7:
   \   00000000   ........           DC32     my_statusbar_st

   \                                 In segment DATA_C, align 4, align-sorted
   \                     `?<Constant "%stheme\\\\sel_1line.png">`:
   \   00000000   25737468656D       DC8 "%stheme\\sel_1line.png"
   \              655C73656C5F
   \              316C696E652E
   \              706E6700    
   \   00000016   0000               DC8 0, 0
   \   00000018   25737468656D       DC8 "%stheme\\bottom_standart.png"
   \              655C626F7474
   \              6F6D5F737461
   \              6E646172742E
   \              706E6700    
   \   00000034   25737468656D       DC8 "%stheme\\body_standart.png"
   \              655C626F6479
   \              5F7374616E64
   \              6172742E706E
   \              6700        
   \   0000004E   0000               DC8 0, 0
   \   00000050   25737468656D       DC8 "%stheme\\headline_standart.png"
   \              655C68656164
   \              6C696E655F73
   \              74616E646172
   \              742E706E6700
   \   0000006E   0000               DC8 0, 0
   \   00000070   25737468656D       DC8 "%stheme\\statusbar_standart.png"
   \              655C73746174
   \              75736261725F
   \              7374616E6461
   \              72742E706E67
   \              00          
   \   0000008F   00                 DC8 0
   \   00000090   25737468656D       DC8 "%stheme\\sel_2line.png"
   \              655C73656C5F
   \              326C696E652E
   \              706E6700    
   \   000000A6   0000               DC8 0, 0
   \   000000A8   25737468656D       DC8 "%stheme\\popup_feedback.png"
   \              655C706F7075
   \              705F66656564
   \              6261636B2E70
   \              6E6700      
   \   000000C3   00                 DC8 0

   Maximum stack usage in bytes:

     Function        CSTACK
     --------        ------
     DisableDynTheme     8
     EnableDynTheme      8
     FreeDynTheme       12
     LoadDynTheme      144


   Segment part sizes:

     Function/Label                 Bytes
     --------------                 -----
     my_statusbar_st                 168
     LoadDynTheme                    856
     EnableDynTheme                  472
     ?Subroutine4                      8
     DisableDynTheme                 468
     FreeDynTheme                    284
     ??DataTable6                      4
     ??DataTable7                      4
     ?<Constant "%stheme\\sel_1line.png">
                                     196
      Others                          28

 
 2 112 bytes in segment CODE
   196 bytes in segment DATA_C
   168 bytes in segment DATA_Z
    12 bytes in segment INITTAB
 
 2 096 bytes of CODE  memory (+ 28 bytes shared)
   196 bytes of CONST memory
   168 bytes of DATA  memory

Errors: none
Warnings: none
