##############################################################################
#                                                                            #
# IAR ARM ANSI C/C++ Compiler V4.42A/W32 EVALUATION    11/Dec/2015  15:20:26 #
# Copyright 1999-2005 IAR Systems. All rights reserved.                      #
#                                                                            #
#    Cpu mode        =  interwork                                            #
#    Endian          =  little                                               #
#    Stack alignment =  4                                                    #
#    Source file     =  E:\Users\alfinant\Documents\Siemens\alfinant\HotKeys #
#                       _SGOLD\main.c                                        #
#    Command line    =  E:\Users\alfinant\Documents\Siemens\alfinant\HotKeys #
#                       _SGOLD\main.c -D SGOLD -D CX70v56 -lCN               #
#                       E:\Users\alfinant\Documents\Siemens\alfinant\HotKeys #
#                       _SGOLD\CX70v56\List\ -o E:\Users\alfinant\Documents\ #
#                       Siemens\alfinant\HotKeys_SGOLD\CX70v56\Obj\ -s9      #
#                       --cpu_mode thumb --endian little --cpu ARM926EJ-S    #
#                       --stack_align 4 --interwork -e --fpu None -I         #
#                       E:\Users\alfinant\Documents\Siemens\IAR\ARM\INC\     #
#                       --inline_threshold=2                                 #
#    List file       =  E:\Users\alfinant\Documents\Siemens\alfinant\HotKeys #
#                       _SGOLD\CX70v56\List\main.lst                         #
#    Object file     =  E:\Users\alfinant\Documents\Siemens\alfinant\HotKeys #
#                       _SGOLD\CX70v56\Obj\main.r79                          #
#                                                                            #
#                                                                            #
##############################################################################

E:\Users\alfinant\Documents\Siemens\alfinant\HotKeys_SGOLD\main.c
      1          #include "..\inc\swilib.h"
      2          #include "def.h"
      3          
      4          //в файле swilib.h структуру NativeExplorerData заменить на ниже приведенную
      5          /*
      6          typedef struct
      7          {
      8            int mode; //0-normal mode, 1-select mode 
      9            int dir_enum; //0x26 by default
     10            WSHDR* path_to_file; //path to file
     11            WSHDR* file_name; //put cursor to this file
     12            int unk5;
     13            int is_exact_dir;
     14            int unk7;
     15            int unk8;
     16            int unk9;
     17            int unk10;
     18          #ifdef NEWSGOLD  
     19            int unk11;
     20          #endif 
     21            WSHDR* full_filename;
     22            int unk13;
     23            int (*user_handler)(void*); //called in select mode
     24            void* this_struct_addr;
     25            int unk16;
     26            int unk17_26[10]; 
     27          }NativeExplorerData;
     28          */
     29          
     30          typedef struct 
     31          { 
     32          /*0x00*/ CSM_RAM csm;
     33          /*0x28*/ int unk28;
     34          /*0x2C*/ int unk2C;
     35          /*0x30*/ void *gui;
     36          /*0x34*/ int unk34;
     37          /*0x38*/ int unk38;
     38          /*0x3C*/ int unk3C;
     39          /*0x40*/ int unk40;
     40          /*0x44*/ int *unk44;
     41          /*0x48*/ char *appid_cur;
     42          /*0x4C*/ int unk4C;
     43          /*0x50*/ int unk50; 
     44          /*0x54*/ int unk54;
     45          /*0x58*/ int unk58;
     46          /*0x5C*/ void *unk5C;
     47          /*0x60*/ int unk60;
     48          /*0x64*/ int unk64;
     49          /*0x68*/ const char appid[16];
     50          /*0x78*/ char *appid_new;
     51          /*0x7C*/ int unk7C;
     52          /*0x80*/ int unk80;
     53          //------------------------------------------
     54          /*0x84*/ NativeExplorerData expl; //0x64
     55          /*0xE8*/ int EXP_CSM_ID;
     56          /*0x  */ WSHDR ws1;
     57          /*0x  */ WSHDR ws2;
     58          /*0x  */ WSHDR ws3;
     59          /*0x  */ unsigned short ws1_body[140];
     60          /*0x  */ unsigned short ws2_body[140];
     61          /*0x  */ unsigned short ws3_body[140];
     62          } MAIN_CSM;
     63          

   \                                 In segment CODE, align 4, keep-with-next
     64          int isNoJava(char * fname)
     65          { 
   \                     isNoJava:
   \   00000000   10B5               PUSH     {R4,LR}
   \   00000002   0400               MOVS     R4,R0
     66            return j_strcmp(fname+j_strlen(fname)-2, "jar");
   \   00000004   ........           _BLF     -1586563879,??rT0xA16EF4D9
   \   00000008   02A1               ADR      R1,??isNoJava_0  ;; "jar"
   \   0000000A   2018               ADDS     R0,R4,R0
   \   0000000C   801E               SUBS     R0,R0,#+2
   \   0000000E   ........           _BLF     -1586564164,??rT0xA16EF3BC
   \   00000012   10BD               POP      {R4,PC}          ;; return
   \                     ??isNoJava_0:
   \   00000014   6A617200           DC8      "jar"
     67          }
     68          
     69          //показываем вместо имени папки имя файла

   \                                 In segment CODE, align 4, keep-with-next
     70          void setFName(int *data, char *fname)
     71          {
   \                     setFName:
   \   00000000   F0B5               PUSH     {R4-R7,LR}
     72            int len;
     73            char *s;
     74            WSHDR *ws;
     75            
     76            s=j_strrchr(fname, '\\') + 1;
   \   00000002   0F4E               LDR      R6,??setFName_0  ;; 0xffffffffa16ef621
   \   00000004   0400               MOVS     R4,R0
   \   00000006   0800               MOVS     R0,R1
   \   00000008   5C21               MOVS     R1,#+92
   \   0000000A   B047               BLX      R6
   \   0000000C   451C               ADDS     R5,R0,#+1
     77            if((len=j_strrchr(s, '.') - s) < 0 ) len=j_strlen(s);
   \   0000000E   2E21               MOVS     R1,#+46
   \   00000010   2800               MOVS     R0,R5
   \   00000012   B047               BLX      R6
   \   00000014   461B               SUBS     R6,R0,R5
   \   00000016   03D5               BPL      ??setFName_1
   \   00000018   2800               MOVS     R0,R5
   \   0000001A   ........           _BLF     -1586563879,??rT0xA16EF4D9
   \   0000001E   0600               MOVS     R6,R0
     78            ws=j_AllocWS(len);
   \                     ??setFName_1:
   \   00000020   3000               MOVS     R0,R6
   \   00000022   ........           _BLF     -1597452361,??rT0xA0C8CFB7
   \   00000026   0700               MOVS     R7,R0
     79            data[30]=(int)ws;
   \   00000028   A767               STR      R7,[R4, #+120]
     80            j_str_2ws(ws, s, len);
   \   0000002A   3200               MOVS     R2,R6
   \   0000002C   2900               MOVS     R1,R5
   \   0000002E   ........           _BLF     -1592547676,??rT0xA113A6A4
     81            somecode_2(ws, data[4]);
   \   00000032   2169               LDR      R1,[R4, #+16]
   \   00000034   3800               MOVS     R0,R7
   \   00000036   0906               LSLS     R1,R1,#+24
   \   00000038   090E               LSRS     R1,R1,#+24
   \   0000003A   ........           _BLF     -1601412385,??rT0xA08C62DF
     82          }
   \   0000003E   F0BD               POP      {R4-R7,PC}       ;; return
   \                     ??setFName_0:
   \   00000040   21F66EA1           DC32     0xffffffffa16ef621
     83          

   \                                 In segment CODE, align 4, keep-with-next
     84          void execFile(char *fname)
     85          {
   \                     execFile:
   \   00000000   10B5               PUSH     {R4,LR}
   \   00000002   CBB0               SUB      SP,SP,#+300
     86            WSHDR ws;
     87            unsigned short ws_body[140];
     88            
     89            j_CreateLocalWS(&ws, ws_body, 139);
   \   00000004   8B22               MOVS     R2,#+139
   \   00000006   0400               MOVS     R4,R0
   \   00000008   05A9               ADD      R1,SP,#+20
   \   0000000A   6846               MOV      R0,SP
   \   0000000C   ........           _BLF     -1597452465,??rT0xA0C8CF4F
     90            if(isNoJava(fname)==0) j_StartMidlet(fname, 1);
   \   00000010   2000               MOVS     R0,R4
   \   00000012   ........           BL       isNoJava
   \   00000016   0028               CMP      R0,#+0
   \   00000018   04D1               BNE      ??execFile_0
   \   0000001A   0121               MOVS     R1,#+1
   \   0000001C   2000               MOVS     R0,R4
   \   0000001E   ........           _BLF     -1597139804,??rT0xA0CD94A4
   \   00000022   09E0               B        ??execFile_1
     91            else
     92            {
     93              j_str_2ws(&ws, fname, 139);
   \                     ??execFile_0:
   \   00000024   8B22               MOVS     R2,#+139
   \   00000026   2100               MOVS     R1,R4
   \   00000028   6846               MOV      R0,SP
   \   0000002A   ........           _BLF     -1592547676,??rT0xA113A6A4
     94              j_ExecuteFile(&ws,0,0);
   \   0000002E   0022               MOVS     R2,#+0
   \   00000030   0021               MOVS     R1,#+0
   \   00000032   6846               MOV      R0,SP
   \   00000034   ........           _BLF     -1600837960,??rT0xA09526B8
     95            }
     96          }   
   \                     ??execFile_1:
   \   00000038   4BB0               ADD      SP,SP,#+300
   \   0000003A   10BD               POP      {R4,PC}          ;; return
     97          

   \                                 In segment CODE, align 4, keep-with-next
     98          int my_handler (void *data) {return (1);}
   \                     my_handler:
   \   00000000   0120               MOVS     R0,#+1
   \   00000002   7047               BX       LR               ;; return
     99          

   \                                 In segment CODE, align 4, keep-with-next
    100          void _OpenExplorer(MAIN_CSM *csm)
    101          {  
   \                     _OpenExplorer:
   \   00000000   F0B5               PUSH     {R4-R7,LR}
   \   00000002   0400               MOVS     R4,R0
    102            j_zeromem(&csm->expl, sizeof(NativeExplorerData));
    103                  
    104            csm->expl.mode=1;
    105            csm->expl.path_to_file=j_CreateLocalWS(&csm->ws1,csm->ws1_body, 139);
   \   00000004   ....               LDR      R6,??DataTable2  ;; 0xffffffffa0c8cf4f
    106            j_wsprintf(csm->expl.path_to_file,"%s","0:");
   \   00000006   ....               LDR      R7,??DataTable3  ;; 0xffffffffa0c8c7bf
   \   00000008   2500               MOVS     R5,R4
   \   0000000A   8435               ADDS     R5,R5,#+132
   \   0000000C   6421               MOVS     R1,#+100
   \   0000000E   2800               MOVS     R0,R5
   \   00000010   ........           _BLF     -1586566124,??rT0xA16EEC14
   \   00000014   0120               MOVS     R0,#+1
   \   00000016   2860               STR      R0,[R5, #+0]
   \   00000018   8B22               MOVS     R2,#+139
   \   0000001A   9420               MOVS     R0,#+148
   \   0000001C   4000               LSLS     R0,R0,#+1
   \   0000001E   2118               ADDS     R1,R4,R0
   \   00000020   2000               MOVS     R0,R4
   \   00000022   EC30               ADDS     R0,R0,#+236
   \   00000024   B047               BLX      R6
   \   00000026   A860               STR      R0,[R5, #+8]
   \   00000028   11A2               ADR      R2,??_OpenExplorer_0  ;; "0:"
   \   0000002A   12A1               ADR      R1,??_OpenExplorer_0+0x4  ;; "%s"
   \   0000002C   B847               BLX      R7
    107            csm->expl.file_name=j_CreateLocalWS(&csm->ws2,csm->ws2_body, 139);
   \   0000002E   8B22               MOVS     R2,#+139
   \   00000030   9020               MOVS     R0,#+144
   \   00000032   8000               LSLS     R0,R0,#+2
   \   00000034   2118               ADDS     R1,R4,R0
   \   00000036   8020               MOVS     R0,#+128
   \   00000038   4000               LSLS     R0,R0,#+1
   \   0000003A   2018               ADDS     R0,R4,R0
   \   0000003C   B047               BLX      R6
   \   0000003E   E860               STR      R0,[R5, #+12]
    108            csm->expl.full_filename=j_CreateLocalWS(&csm->ws3,csm->ws3_body, 139);
   \   00000040   8B22               MOVS     R2,#+139
   \   00000042   D620               MOVS     R0,#+214
   \   00000044   8000               LSLS     R0,R0,#+2
   \   00000046   2118               ADDS     R1,R4,R0
   \   00000048   8A20               MOVS     R0,#+138
   \   0000004A   4000               LSLS     R0,R0,#+1
   \   0000004C   2018               ADDS     R0,R4,R0
   \   0000004E   B047               BLX      R6
    109            j_wsprintf(csm->expl.full_filename,"%s","None"); 
   \   00000050   094A               LDR      R2,??_OpenExplorer_0+0x8  ;; `?<Constant "None">`
   \   00000052   A862               STR      R0,[R5, #+40]
   \   00000054   07A1               ADR      R1,??_OpenExplorer_0+0x4  ;; "%s"
   \   00000056   B847               BLX      R7
    110            csm->expl.user_handler=my_handler;
   \   00000058   0848               LDR      R0,??_OpenExplorer_0+0xC  ;; my_handler
    111            //csm->expl->this_struct_addr=csm;
    112             
    113            //обнуляем первое полуслово wsbody,по нему определятся выбран файл или нет.                               
    114            csm->expl.full_filename->wsbody[0]=0;
   \   0000005A   0021               MOVS     R1,#+0
   \   0000005C   2863               STR      R0,[R5, #+48]
   \   0000005E   A86A               LDR      R0,[R5, #+40]
   \   00000060   0068               LDR      R0,[R0, #+0]
   \   00000062   0180               STRH     R1,[R0, #+0]
    115            csm->EXP_CSM_ID=j_OpenExplorer(&csm->expl);
   \   00000064   2800               MOVS     R0,R5
   \   00000066   ........           _BLF     -1600588004,??rT0xA098F71C
   \   0000006A   6866               STR      R0,[R5, #+100]
    116          }
   \   0000006C   F0BD               POP      {R4-R7,PC}       ;; return
   \   0000006E   C046               Nop      
   \                     ??_OpenExplorer_0:
   \   00000070   303A0000           DC8      "0:",+0
   \   00000074   25730000           DC8      "%s",+0
   \   00000078   ........           DC32     `?<Constant "None">`
   \   0000007C   ........           DC32     my_handler
    117          

   \                                 In segment CODE, align 4, keep-with-next
    118          int my_onmessage(CSM_RAM *data, GBS_MSG *msg)
    119          {
   \                     my_onmessage:
   \   00000000   F0B5               PUSH     {R4-R7,LR}
   \   00000002   ACB0               SUB      SP,SP,#+176
   \   00000004   0600               MOVS     R6,R0
    120            WSHDR *ws;
    121            int crc;
    122            int reslen;
    123            char str[140];
    124            char entry[32];
    125                 
    126            MAIN_CSM *csm=(MAIN_CSM*)data;
    127            
    128            if(csm->appid_new != 0)
   \   00000006   3400               MOVS     R4,R6
   \   00000008   1034               ADDS     R4,R4,#+16
   \   0000000A   A06E               LDR      R0,[R4, #+104]
   \   0000000C   0028               CMP      R0,#+0
   \   0000000E   ....               BNE      .+5
   \   00000010   81E0               B        ??my_onmessage_0
    129            {
    130              //устанавливаем имя для 3го пункта меню
    131              if (msg->msg==0x1B4 && msg->submess==0x66 && (int)msg->data0==2)  
   \   00000012   8868               LDR      R0,[R1, #+8]
   \   00000014   0222               MOVS     R2,#+2
   \   00000016   8A5E               LDRSH    R2,[R1, R2]
   \   00000018   DA23               MOVS     R3,#+218
   \   0000001A   5B00               LSLS     R3,R3,#+1
   \   0000001C   9A42               CMP      R2,R3
   \   0000001E   17D1               BNE      ??my_onmessage_1
   \   00000020   4A68               LDR      R2,[R1, #+4]
   \   00000022   662A               CMP      R2,#+102
   \   00000024   6CD1               BNE      ??my_onmessage_2
   \   00000026   0228               CMP      R0,#+2
   \   00000028   75D1               BNE      ??my_onmessage_0
    132             { 
    133               ws=j_AllocMenuWS(csm->gui, 32);
   \   0000002A   206A               LDR      R0,[R4, #+32]
   \   0000002C   2021               MOVS     R1,#+32
   \   0000002E   ........           _BLF     -1597412063,??rT0xA0C96D21
    134               j_wsprintf(ws,"<%t>",LGPID_FILE);
   \   00000032   3B4A               LDR      R2,??my_onmessage_3  ;; 0xdec
   \   00000034   3B49               LDR      R1,??my_onmessage_3+0x4  ;; `?<Constant "<%t>">`
   \   00000036   0500               MOVS     R5,R0
   \   00000038   ........           _BLF     -1597454401,??rT0xA0C8C7BF
    135               somecode_1(csm, 2, ws, (void*)SHORTCUTS_BASE);
   \   0000003C   3A4B               LDR      R3,??my_onmessage_3+0x8  ;; 0xffffffffa09476dc
   \   0000003E   2A00               MOVS     R2,R5
   \   00000040   0221               MOVS     R1,#+2
   \   00000042   3000               MOVS     R0,R6
   \   00000044   ........           _BLF     -1601200373,??rT0xA08F9F0B
    136               csm->unk40=2;
   \   00000048   0220               MOVS     R0,#+2
   \   0000004A   2063               STR      R0,[R4, #+48]
    137               return 0;
   \                     ??my_onmessage_4:
   \   0000004C   0020               MOVS     R0,#+0
   \   0000004E   65E0               B        ??my_onmessage_5
    138             }
    139             //при открытии 3го пункта меню
    140             if (msg->msg==0x1B4 && msg->submess==0x65 && (int)msg->data0==2)  
    141             {
    142               csm->csm.state=4;
    143               _OpenExplorer(csm);
    144               return 0;
    145             }
    146            //выбрали файл в CardExplorer
    147            if (msg->msg==MSG_CSM_DESTROYED && (int)msg->data0==csm->EXP_CSM_ID)  
   \                     ??my_onmessage_1:
   \   00000050   932A               CMP      R2,#+147
   \   00000052   60D1               BNE      ??my_onmessage_0
   \   00000054   3500               MOVS     R5,R6
   \   00000056   AC35               ADDS     R5,R5,#+172
   \   00000058   EA6B               LDR      R2,[R5, #+60]
   \   0000005A   9042               CMP      R0,R2
   \   0000005C   5BD1               BNE      ??my_onmessage_0
   \   0000005E   2868               LDR      R0,[R5, #+0]
   \   00000060   0068               LDR      R0,[R0, #+0]
   \   00000062   0088               LDRH     R0,[R0, #+0]
   \   00000064   0028               CMP      R0,#+0
   \   00000066   43D0               BEQ      ??my_onmessage_6
    148             {
    149               if(csm->expl.full_filename->wsbody[0]!=0)
    150               {
    151                 j_ws_2str(csm->expl.full_filename, str, 139);
   \   00000068   2868               LDR      R0,[R5, #+0]
    152                 crc=j_strcrc32(str);
    153                 j_sprintf(entry,"%1u", crc);
    154                 j_SettingsRead(0x302, entry, str, &reslen);
   \   0000006A   304F               LDR      R7,??my_onmessage_3+0xC  ;; 0x302
   \   0000006C   8B22               MOVS     R2,#+139
   \   0000006E   09A9               ADD      R1,SP,#+36
   \   00000070   ........           _BLF     -1592547388,??rT0xA113A7C4
   \   00000074   09A8               ADD      R0,SP,#+36
   \   00000076   ........           _BLF     -1598073191,??rT0xA0BF5699
   \   0000007A   0600               MOVS     R6,R0
   \   0000007C   3200               MOVS     R2,R6
   \   0000007E   2CA1               ADR      R1,??my_onmessage_3+0x10  ;; "%1u"
   \   00000080   01A8               ADD      R0,SP,#+4
   \   00000082   ........           _BLF     -1587477999,??rT0xA1610211
   \   00000086   6B46               MOV      R3,SP
   \   00000088   09AA               ADD      R2,SP,#+36
   \   0000008A   01A9               ADD      R1,SP,#+4
   \   0000008C   3800               MOVS     R0,R7
   \   0000008E   ........           _BLF     -1598510549,??rT0xA0B8AA2B
    155                 if(reslen==0)
   \   00000092   0098               LDR      R0,[SP, #+0]
   \   00000094   0028               CMP      R0,#+0
   \   00000096   0CD1               BNE      ??my_onmessage_7
    156                 {
    157                   j_SettingsWrite(0x302, entry, str, j_strlen(str));//запись в javaregdb.pd
   \   00000098   09A8               ADD      R0,SP,#+36
   \   0000009A   ........           _BLF     -1586563879,??rT0xA16EF4D9
   \   0000009E   0300               MOVS     R3,R0
   \   000000A0   09AA               ADD      R2,SP,#+36
   \   000000A2   01A9               ADD      R1,SP,#+4
   \   000000A4   3800               MOVS     R0,R7
   \   000000A6   ........           _BLF     -1598510541,??rT0xA0B8AA33
    158                   j_SettingsUpdate(0x302, entry);//обновили кэш?
   \   000000AA   01A9               ADD      R1,SP,#+4
   \   000000AC   3800               MOVS     R0,R7
   \   000000AE   ........           _BLF     -1598510487,??rT0xA0B8AA69
    159                 }
    160                 j_sprintf(csm->appid_new, "XTRA_JC%08x", crc);
   \                     ??my_onmessage_7:
   \   000000B2   2049               LDR      R1,??my_onmessage_3+0x14  ;; `?<Constant "<%t>">` + 8
   \   000000B4   A06E               LDR      R0,[R4, #+104]
    161                 j_GBS_SendMessage(0x4209, 0x1B6, 1, csm->appid_new, csm->appid_cur);//для IDLE hotkey
   \   000000B6   204F               LDR      R7,??my_onmessage_3+0x18  ;; 0x4209
   \   000000B8   3200               MOVS     R2,R6
   \   000000BA   204E               LDR      R6,??my_onmessage_3+0x1C  ;; 0xffffffffa0827b04
   \   000000BC   ........           _BLF     -1587477999,??rT0xA1610211
   \   000000C0   A06B               LDR      R0,[R4, #+56]
   \   000000C2   0122               MOVS     R2,#+1
   \   000000C4   01B4               PUSH     {R0}
   \   000000C6   A36E               LDR      R3,[R4, #+104]
   \   000000C8   DB21               MOVS     R1,#+219
   \   000000CA   4900               LSLS     R1,R1,#+1
   \   000000CC   3800               MOVS     R0,R7
   \   000000CE   B047               BLX      R6
    162                 j_GBS_SendMessage(0x4209, 0x1B8, 1, csm->appid_new, csm->appid_cur);//для "Мое меню"
   \   000000D0   A06B               LDR      R0,[R4, #+56]
   \   000000D2   0122               MOVS     R2,#+1
   \   000000D4   01B4               PUSH     {R0}
   \   000000D6   A36E               LDR      R3,[R4, #+104]
   \   000000D8   DC21               MOVS     R1,#+220
   \   000000DA   4900               LSLS     R1,R1,#+1
   \   000000DC   3800               MOVS     R0,R7
   \   000000DE   B047               BLX      R6
    163                 csm->appid_new=0;
   \   000000E0   0020               MOVS     R0,#+0
   \   000000E2   A066               STR      R0,[R4, #+104]
    164                 csm->unk50=1;
   \   000000E4   0120               MOVS     R0,#+1
   \   000000E6   2064               STR      R0,[R4, #+64]
    165                 csm->csm.state=-3;
   \   000000E8   0220               MOVS     R0,#+2
   \   000000EA   C043               MVNS     R0,R0
   \   000000EC   2060               STR      R0,[R4, #+0]
   \   000000EE   02B0               ADD      SP,SP,#+8
    166               }
    167          
    168                 if(csm->expl.full_filename->wsbody[0]==0) csm->csm.state=1;
   \                     ??my_onmessage_6:
   \   000000F0   2868               LDR      R0,[R5, #+0]
   \   000000F2   0068               LDR      R0,[R0, #+0]
   \   000000F4   0088               LDRH     R0,[R0, #+0]
   \   000000F6   0028               CMP      R0,#+0
   \   000000F8   A8D1               BNE      ??my_onmessage_4
   \   000000FA   0120               MOVS     R0,#+1
   \   000000FC   2060               STR      R0,[R4, #+0]
    169                 return 0;
   \                     ??my_onmessage_8:
   \   000000FE   A5E7               B.N      ??my_onmessage_4
    170             }
   \                     ??my_onmessage_2:
   \   00000100   652A               CMP      R2,#+101
   \   00000102   08D1               BNE      ??my_onmessage_0
   \   00000104   0228               CMP      R0,#+2
   \   00000106   06D1               BNE      ??my_onmessage_0
   \   00000108   0420               MOVS     R0,#+4
   \   0000010A   2060               STR      R0,[R4, #+0]
   \   0000010C   3000               MOVS     R0,R6
   \   0000010E   ........           BL       _OpenExplorer
   \   00000112   0020               MOVS     R0,#+0
   \   00000114   02E0               B        ??my_onmessage_5
    171            }
    172            return onmessage_hotkey_menu(data, msg);
   \                     ??my_onmessage_0:
   \   00000116   3000               MOVS     R0,R6
   \   00000118   ........           _BLF     -1601199413,??rT0xA08FA2CB
   \                     ??my_onmessage_5:
   \   0000011C   2CB0               ADD      SP,SP,#+176
   \   0000011E   F0BD               POP      {R4-R7,PC}       ;; return
   \                     ??my_onmessage_3:
   \   00000120   EC0D0000           DC32     0xdec
   \   00000124   ........           DC32     `?<Constant "<%t>">`
   \   00000128   DC7694A0           DC32     0xffffffffa09476dc
   \   0000012C   02030000           DC32     0x302
   \   00000130   25317500           DC8      "%1u"
   \   00000134   ........           DC32     `?<Constant "<%t>">` + 8
   \   00000138   09420000           DC32     0x4209
   \   0000013C   047B82A0           DC32     0xffffffffa0827b04
    173          }

   \                                 In segment CODE, align 4, keep-with-next
   \                     ??DataTable2:
   \   00000000   4FCFC8A0           DC32     0xffffffffa0c8cf4f

   \                                 In segment CODE, align 4, keep-with-next
   \                     ??DataTable3:
   \   00000000   BFC7C8A0           DC32     0xffffffffa0c8c7bf

   \                                 In segment DATA_C, align 4, align-sorted
   \   00000000   6A617200           DC8 "jar"

   \                                 In segment DATA_C, align 1, align-sorted
   \   00000000   257300             DC8 "%s"

   \                                 In segment DATA_C, align 1, align-sorted
   \   00000000   303A00             DC8 "0:"

   \                                 In segment DATA_C, align 4, align-sorted
   \                     `?<Constant "None">`:
   \   00000000   4E6F6E6500         DC8 "None"
   \   00000005   000000             DC8 0, 0, 0

   \                                 In segment DATA_C, align 4, align-sorted
   \                     `?<Constant "<%t>">`:
   \   00000000   3C25743E00         DC8 "<%t>"
   \   00000005   000000             DC8 0, 0, 0
   \   00000008   585452415F4A       DC8 "XTRA_JC%08x"
   \              432530387800

   \                                 In segment DATA_C, align 4, align-sorted
   \   00000000   25317500           DC8 "%1u"

   Maximum stack usage in bytes:

     Function      CSTACK
     --------      ------
     _OpenExplorer    20
     execFile        308
     isNoJava          8
     my_handler        0
     my_onmessage    204
     setFName         20


   Segment part sizes:

     Function/Label     Bytes
     --------------     -----
     isNoJava             24
     setFName             68
     execFile             60
     my_handler            4
     _OpenExplorer       128
     my_onmessage        320
     ??DataTable2          4
     ??DataTable3          4
     ?<Constant "jar">     4
     ?<Constant "%s">      3
     ?<Constant "0:">      3
     ?<Constant "None">    8
     ?<Constant "<%t>">   20
     ?<Constant "%1u">     4
      Others             238

 
 850 bytes in segment CODE
  42 bytes in segment DATA_C
 
 612 bytes of CODE  memory (+ 238 bytes shared)
  42 bytes of CONST memory

Errors: none
Warnings: none
