##############################################################################
#                                                                            #
# IAR ARM ANSI C/C++ Compiler V4.42A/W32 EVALUATION    09/Oct/2014  23:03:31 #
# Copyright 1999-2005 IAR Systems. All rights reserved.                      #
#                                                                            #
#    Cpu mode        =  interwork                                            #
#    Endian          =  little                                               #
#    Stack alignment =  4                                                    #
#    Source file     =  C:\Users\alfin_000\Documents\Siemens\IAR\ARM\alfinan #
#                       t\PinControl\main.c                                  #
#    Command line    =  C:\Users\alfin_000\Documents\Siemens\IAR\ARM\alfinan #
#                       t\PinControl\main.c -D SGOLD -D LUMBERG -lCN         #
#                       C:\Users\alfin_000\Documents\Siemens\IAR\ARM\alfinan #
#                       t\PinControl\Release_SGOLD\List\ -la                 #
#                       C:\Users\alfin_000\Documents\Siemens\IAR\ARM\alfinan #
#                       t\PinControl\Release_SGOLD\List\ -o                  #
#                       C:\Users\alfin_000\Documents\Siemens\IAR\ARM\alfinan #
#                       t\PinControl\Release_SGOLD\Obj\ -z9 --cpu_mode arm   #
#                       --endian little --cpu ARM926EJ-S --stack_align 4     #
#                       --interwork -e --fpu None --dlib_config              #
#                       C:\Users\alfin_000\Documents\Siemens\IAR\ARM\LIB\dl5 #
#                       tpainl8n.h -I C:\Users\alfin_000\Documents\Siemens\I #
#                       AR\ARM\INC\ --inline_threshold=2                     #
#    List file       =  C:\Users\alfin_000\Documents\Siemens\IAR\ARM\alfinan #
#                       t\PinControl\Release_SGOLD\List\main.lst             #
#    Object file     =  C:\Users\alfin_000\Documents\Siemens\IAR\ARM\alfinan #
#                       t\PinControl\Release_SGOLD\Obj\main.r79              #
#                                                                            #
#                                                                            #
##############################################################################

C:\Users\alfin_000\Documents\Siemens\IAR\ARM\alfinant\PinControl\main.c
      1          #include <siemens/swilib.h>
      2          #include <siemens/connector.h>

   \                                 In segment DATA_AN, at 0xf4000000
   \   CAPCOM_TypeDef __data CCU0
   \                     CCU0:
   \   00000000                      DS8 256

   \                                 In segment DATA_AN, at 0xf4100000
   \   CAPCOM_TypeDef __data CCU1
   \                     CCU1:
   \   00000000                      DS8 256

   \                                 In segment DATA_I, align 4, align-sorted
   \   uint32_t __data connector[13]
   \                     connector:
   \   00000000                      DS8 52
   \   00000034                      REQUIRE `?<Initializer for connector>`
   \   uint32_t __data save_connector[13]
   \                     save_connector:
   \   00000034                      DS8 52
   \   00000068                      REQUIRE `?<Initializer for save_connector>`

   \                                 In segment CODE, align 4, keep-with-next
   \   __??Code32?? __code __interwork __atpcs void InitPin(uint8_t)
   \                     InitPin:
   \   00000000   00402DE9           PUSH     {LR}
   \   00000004   0D0050E3           CMP      R0,#+13
   \   00000008   0080BD28           POPCS    {PC}
   \   0000000C   ........           LDR      R1,??DataTable3  ;; connector
   \   00000010   002191E7           LDR      R2,[R1, +R0, LSL #+2]
   \   00000014   0230B0E1           MOVS     R3,R2
   \   00000018   0080BD08           POPEQ    {PC}
   \   0000001C   000181E0           ADD      R0,R1,R0, LSL #+2
   \   00000020   010052E3           CMP      R2,#+1
   \   00000024   0400001A           BNE      ??InitPin_0
   \   00000028   0020A0E3           MOV      R2,#+0
   \   0000002C   341080E2           ADD      R1,R0,#+52
   \   00000030   1000A0E3           MOV      R0,#+16
   \   00000034   ........           _BLF     i2cr_pmu,??i2cr_pmu??rA
   \   00000038   0080BDE8           POP      {PC}
   \                     ??InitPin_0:
   \   0000003C   F414A0E3           MOV      R1,#-201326592
   \   00000040   0020A0E3           MOV      R2,#+0
   \   00000044   002081E5           STR      R2,[R1, #+0]
   \   00000048   40C981E3           ORR      R12,R1,#0x100000
   \   0000004C   00208CE5           STR      R2,[R12, #+0]
   \   00000050   00E093E5           LDR      LR,[R3, #+0]
   \   00000054   34E080E5           STR      LR,[R0, #+52]
   \   00000058   002083E5           STR      R2,[R3, #+0]
   \   0000005C   400FA0E3           MOV      R0,#+256
   \   00000060   000081E5           STR      R0,[R1, #+0]
   \   00000064   00008CE5           STR      R0,[R12, #+0]
   \   00000068   0080BDE8           POP      {PC}             ;; return

   \                                 In segment CODE, align 4, keep-with-next
   \   __??Code32?? __code __interwork __atpcs void pinMode(uint8_t, uint8_t)
   \                     pinMode:
   \   00000000   ........           LDR      R2,??DataTable3  ;; connector
   \   00000004   000192E7           LDR      R0,[R2, +R0, LSL #+2]
   \   00000008   000050E3           CMP      R0,#+0
   \   0000000C   1EFF2F01           BXEQ     LR
   \   00000010   000051E3           CMP      R1,#+0
   \   00000014   401FA003           MOVEQ    R1,#+256
   \   00000018   0200000A           BEQ      ??pinMode_0
   \   0000001C   010051E3           CMP      R1,#+1
   \   00000020   0200001A           BNE      ??pinMode_1
   \   00000024   501EA0E3           MOV      R1,#+1280
   \                     ??pinMode_0:
   \   00000028   001080E5           STR      R1,[R0, #+0]
   \   0000002C   1EFF2FE1           BX       LR
   \                     ??pinMode_1:
   \   00000030   020051E3           CMP      R1,#+2
   \   00000034   441DA003           MOVEQ    R1,#+4352
   \   00000038   FAFFFF0A           BEQ      ??pinMode_0
   \   0000003C   030051E3           CMP      R1,#+3
   \   00000040   541DA003           MOVEQ    R1,#+5376
   \   00000044   F7FFFF0A           BEQ      ??pinMode_0
   \   00000048   040051E3           CMP      R1,#+4
   \   0000004C   841DA003           MOVEQ    R1,#+8448
   \   00000050   ........           B        ?Subroutine7

   \                                 In segment CODE, align 4, keep-with-next
   \                     ?Subroutine7:
   \   00000000   00108005           STREQ    R1,[R0, #+0]
   \   00000004   1EFF2FE1           BX       LR               ;; return

   \                                 In segment CODE, align 4, keep-with-next
   \   __??Code32?? __code __interwork __atpcs void digitalWrite(uint8_t, uint8_t)
   \                     digitalWrite:
   \   00000000   ........           LDR      R2,??DataTable3  ;; connector
   \   00000004   000192E7           LDR      R0,[R2, +R0, LSL #+2]
   \   00000008   000050E3           CMP      R0,#+0
   \   0000000C   1EFF2F01           BXEQ     LR
   \   00000010   010051E3           CMP      R1,#+1
   \   00000014   00109005           LDREQ    R1,[R0, #+0]
   \   00000018   801F8103           ORREQ    R1,R1,#0x200
   \   0000001C   00108005           STREQ    R1,[R0, #+0]
   \   00000020   1EFF2F01           BXEQ     LR
   \   00000024   000051E3           CMP      R1,#+0
   \   00000028   00109005           LDREQ    R1,[R0, #+0]
   \   0000002C   801FC103           BICEQ    R1,R1,#0x200
   \   00000030                      REQUIRE ?Subroutine7
   \   00000030                      ;; // Fall through to label ?Subroutine7

   \                                 In segment CODE, align 4, keep-with-next
   \   __??Code32?? __code __interwork __atpcs int digitalRead(uint8_t)
   \                     digitalRead:
   \   00000000   ........           LDR      R2,??DataTable3  ;; connector
   \   00000004   0010A0E3           MOV      R1,#+0
   \   00000008   000192E7           LDR      R0,[R2, +R0, LSL #+2]
   \   0000000C   000050E3           CMP      R0,#+0
   \   00000010   00009015           LDRNE    R0,[R0, #+0]
   \   00000014   801F0012           ANDNE    R1,R0,#0x200
   \   00000018   0100A0E1           MOV      R0,R1
   \   0000001C   1EFF2FE1           BX       LR               ;; return
      3          
      4          
      5          #pragma swi_number=0x385
      6          __swi __arm void *GetGBSProcAddress(short cepid);
      7          
      8          
      9          extern void kill_data(void *p, void (*func_p)(void *));
     10          #pragma segment="ELFBEGIN"

   \                                 In segment CODE, align 4, keep-with-next
     11          void ElfKiller(void)
     12          {
   \                     ElfKiller:
   \   00000000   00402DE9           PUSH     {LR}
     13            kill_data(__segment_begin("ELFBEGIN"),(void (*)(void *))mfree_adr());
   \   00000004   158000EF           SWI      +32789
   \   00000008   0010A0E1           MOV      R1,R0
   \   0000000C   04009FE5           LDR      R0,??ElfKiller_0  ;; SFB(ELFBEGIN)
   \   00000010   0040BDE8           POP      {LR}             ;; Pop
   \   00000014   ........           _BF      kill_data,??kill_data??rA  ;; tailcall
   \                     ??ElfKiller_0:
   \   00000018   ........           DC32     SFB(ELFBEGIN)
     14          }
     15          

   \                                 In segment DATA_I, align 4, align-sorted
     16          unsigned data[0x6];
   \                     `data`:
   \   00000000                      DS8 24
   \   00000018                      REQUIRE `?<Initializer for data>`
     17          unsigned *map =(unsigned*)0xF430004C;
   \                     map:
   \   00000018                      DS8 4
   \   0000001C                      REQUIRE `?<Initializer for map>`
     18          

   \                                 In segment CODE, align 4, keep-with-next
     19          void SaveRegMap()
     20          { unsigned  err=0;
   \                     SaveRegMap:
   \   00000000   31402DE9           PUSH     {R0,R4,R5,LR}
   \   00000004   0010A0E3           MOV      R1,#+0
     21          
     22            for(int i=0; i<6;i++) data[i] = *(map++); 
   \   00000008   5C409FE5           LDR      R4,??SaveRegMap_0  ;; `data`
   \   0000000C   00108DE5           STR      R1,[SP, #+0]
   \   00000010   0000A0E3           MOV      R0,#+0
   \                     ??SaveRegMap_1:
   \   00000014   181094E5           LDR      R1,[R4, #+24]
   \   00000018   ........           LDR      R2,[R1], #+4
   \   0000001C   181084E5           STR      R1,[R4, #+24]
   \   00000020   002184E7           STR      R2,[R4, +R0, LSL #+2]
   \   00000024   010080E2           ADD      R0,R0,#+1
   \   00000028   060050E3           CMP      R0,#+6
   \   0000002C   F8FFFFBA           BLT      ??SaveRegMap_1
     23          
     24            int f=fopen("0:\\gpio.bin",A_ReadWrite+A_Create+A_Truncate+A_BIN,P_WRITE+P_READ,&err);
   \   00000030   38009FE5           LDR      R0,??SaveRegMap_0+0x4  ;; `?<Constant "0:\\\\gpio.bin">`
   \   00000034   0D30A0E1           MOV      R3,SP
   \   00000038   602FA0E3           MOV      R2,#+384
   \   0000003C   0210A0E3           MOV      R1,#+2
   \   00000040   831C81E3           ORR      R1,R1,#0x8300
   \   00000044   0A0000EF           SWI      +10
   \   00000048   0050A0E1           MOV      R5,R0
     25            fwrite(f,data,0x18,&err);
   \   0000004C   0D30A0E1           MOV      R3,SP
   \   00000050   1820A0E3           MOV      R2,#+24
   \   00000054   0410A0E1           MOV      R1,R4
   \   00000058   0C0000EF           SWI      +12
     26            fclose(f,&err);
   \   0000005C   0D10A0E1           MOV      R1,SP
   \   00000060   0500A0E1           MOV      R0,R5
   \   00000064   0D0000EF           SWI      +13
     27          }
   \   00000068   3180BDE8           POP      {R0,R4,R5,PC}    ;; return
   \                     ??SaveRegMap_0:
   \   0000006C   ........           DC32     `data`
   \   00000070   ........           DC32     `?<Constant "0:\\\\gpio.bin">`
     28          
     29          

   \                                 In segment CODE, align 4, keep-with-next
     30          int main(char *exename, char *fname) {
     31            
     32            ShowMSG(1, (int)"ELF started!");
   \                     main:
   \   00000000   4C109FE5           LDR      R1,??main_0      ;; `?<Constant "ELF started!">`
   \   00000004   00402DE9           PUSH     {LR}
   \   00000008   0100A0E3           MOV      R0,#+1
   \   0000000C   480100EF           SWI      +328
     33            
     34            InitPin(TX); //Вызывать всегда в начале,ибо пины по умолчанию привязаны к CAPCOM интерфейсу(определение подключения гарнитуры,кабеля и тд.)
   \   00000010   0300A0E3           MOV      R0,#+3
   \   00000014   ........           BL       InitPin
     35            InitPin(DCD);
   \   00000018   0700A0E3           MOV      R0,#+7
   \   0000001C   ........           BL       InitPin
     36          
     37           
     38            pinMode(DCD, OUTPUT);
   \   00000020   0110A0E3           MOV      R1,#+1
   \   00000024   0700A0E3           MOV      R0,#+7
   \   00000028   ........           BL       pinMode
     39            pinMode(TX, OUTPUT);
   \   0000002C   0110A0E3           MOV      R1,#+1
   \   00000030   0300A0E3           MOV      R0,#+3
   \   00000034   ........           BL       pinMode
     40            
     41            digitalWrite(TX, HIGH);
   \   00000038   0110A0E3           MOV      R1,#+1
   \   0000003C   0300A0E3           MOV      R0,#+3
   \   00000040   ........           BL       digitalWrite
     42          
     43          
     44            
     45          
     46            
     47            //SaveRegMap();
     48            
     49            SUBPROC((void *)ElfKiller);
   \   00000044   0C009FE5           LDR      R0,??main_0+0x4  ;; ElfKiller
   \   00000048   710100EF           SWI      +369
     50            return 0;
   \   0000004C   0000A0E3           MOV      R0,#+0
   \   00000050   0080BDE8           POP      {PC}             ;; return
   \                     ??main_0:
   \   00000054   ........           DC32     `?<Constant "ELF started!">`
   \   00000058   ........           DC32     ElfKiller
     51          }

   \                                 In segment CODE, align 4, keep-with-next
   \                     ??DataTable3:
   \   00000000   ........           DC32     connector

   \                                 In segment DATA_ID, align 4, align-sorted
   \                     `?<Initializer for connector>`:
   \   00000000   000000000100       DC32 0, 1, 0, 4096786512, 4096786508, 4096786520, 4096786516
   \              000000000000
   \              500030F44C00
   \              30F4580030F4
   \              540030F4    
   \   0000001C   5C0030F40000       DC32 4096786524, 0, 0, 0, 0, 0
   \              000000000000
   \              000000000000
   \              000000000000
   \                     `?<Initializer for save_connector>`:
   \   00000034   000000000000       DC32 0, 0, 0, 0, 0, 0, 0, 0, 0, 0, 0, 0, 0
   \              000000000000
   \              000000000000
   \              000000000000
   \              000000000000
   \              000000000000
   \              000000000000
   \              000000000000
   \              00000000    

   \                                 In segment DATA_ID, align 4, align-sorted
   \                     `?<Initializer for data>`:
   \   00000000   000000000000       DC8 0, 0, 0, 0, 0, 0, 0, 0, 0, 0, 0, 0, 0, 0, 0, 0
   \              000000000000
   \              00000000    
   \   00000010   000000000000       DC8 0, 0, 0, 0, 0, 0, 0, 0
   \              0000        
   \                     `?<Initializer for map>`:
   \   00000018   4C0030F4           DC32 0F430004CH

   \                                 In segment ELFBEGIN, align 1

   \                                 In segment DATA_C, align 4, align-sorted
   \                     `?<Constant "0:\\\\gpio.bin">`:
   \   00000000   303A5C677069       DC8 "0:\\gpio.bin"
   \              6F2E62696E00

   \                                 In segment DATA_C, align 4, align-sorted
   \                     `?<Constant "ELF started!">`:
   \   00000000   454C46207374       DC8 "ELF started!"
   \              617274656421
   \              00          
   \   0000000D   000000             DC8 0, 0, 0

   Maximum stack usage in bytes:

     Function     CSTACK
     --------     ------
     ElfKiller        4
     InitPin          4
     SaveRegMap      16
     digitalRead      0
     digitalWrite     0
     main             4
     pinMode          0


   Segment part sizes:

     Function/Label               Bytes
     --------------               -----
     CCU0                          256
     CCU1                          256
     connector                     104
     InitPin                       108
     pinMode                        84
     ?Subroutine7                    8
     digitalWrite                   48
     digitalRead                    32
     ElfKiller                      28
     data                           28
     SaveRegMap                    116
     main                           92
     ??DataTable3                    4
     ?<Initializer for connector>  104
     ?<Initializer for data>        28
     ?<Constant "0:\\gpio.bin">     12
     ?<Constant "ELF started!">     16
      Others                        64

 
 572 bytes in segment CODE
 512 bytes in segment DATA_AN
  28 bytes in segment DATA_C
 132 bytes in segment DATA_I
 132 bytes in segment DATA_ID
  12 bytes in segment INITTAB
 
 520 bytes of CODE  memory (+  64 bytes shared)
 160 bytes of CONST memory
 132 bytes of DATA  memory (+ 512 bytes shared)

Errors: none
Warnings: none
