##############################################################################
#                                                                            #
# IAR ARM ANSI C/C++ Compiler V4.42A/W32 EVALUATION    05/Oct/2023  21:05:52 #
# Copyright 1999-2005 IAR Systems. All rights reserved.                      #
#                                                                            #
#    Cpu mode        =  interwork                                            #
#    Endian          =  little                                               #
#    Stack alignment =  4                                                    #
#    Source file     =  D:\Users\alfinant\Documents\Siemens\Dev\IAR\aes128_p #
#                       atch\aes\aes_core.c                                  #
#    Command line    =  D:\Users\alfinant\Documents\Siemens\Dev\IAR\aes128_p #
#                       atch\aes\aes_core.c -D NEWSGOLD -D EL71v45 -lC       #
#                       D:\Users\alfinant\Documents\Siemens\Dev\IAR\aes128_p #
#                       atch\EL71v45\List\ -o D:\Users\alfinant\Documents\Si #
#                       emens\Dev\IAR\aes128_patch\EL71v45\Obj\ -z9          #
#                       --cpu_mode thumb --endian little --cpu ARM926EJ-S    #
#                       --stack_align 4 --interwork -e --enable_multibytes   #
#                       --fpu None --dlib_config D:\Users\alfinant\Documents #
#                       \Siemens\IAR\ARM\LIB\dl5tptinl8n.h -I                #
#                       D:\Users\alfinant\Documents\Siemens\IAR\ARM\INC\     #
#                       --inline_threshold=2                                 #
#    List file       =  D:\Users\alfinant\Documents\Siemens\Dev\IAR\aes128_p #
#                       atch\EL71v45\List\aes_core.lst                       #
#    Object file     =  D:\Users\alfinant\Documents\Siemens\Dev\IAR\aes128_p #
#                       atch\EL71v45\Obj\aes_core.r79                        #
#                                                                            #
#                                                                            #
##############################################################################

D:\Users\alfinant\Documents\Siemens\Dev\IAR\aes128_patch\aes\aes_core.c
      1          /* crypto/aes/aes_core.c -*- mode:C; c-file-style: "eay" -*- */
      2          /**
      3           * rijndael-alg-fst.c
      4           *
      5           * @version 3.0 (December 2000)
      6           *
      7           * Optimised ANSI C code for the Rijndael cipher (now AES)
      8           *
      9           * @author Vincent Rijmen <vincent.rijmen@esat.kuleuven.ac.be>
     10           * @author Antoon Bosselaers <antoon.bosselaers@esat.kuleuven.ac.be>
     11           * @author Paulo Barreto <paulo.barreto@terra.com.br>
     12           *
     13           * This code is hereby placed in the public domain.
     14           *
     15           * THIS SOFTWARE IS PROVIDED BY THE AUTHORS ''AS IS'' AND ANY EXPRESS
     16           * OR IMPLIED WARRANTIES, INCLUDING, BUT NOT LIMITED TO, THE IMPLIED
     17           * WARRANTIES OF MERCHANTABILITY AND FITNESS FOR A PARTICULAR PURPOSE
     18           * ARE DISCLAIMED.  IN NO EVENT SHALL THE AUTHORS OR CONTRIBUTORS BE
     19           * LIABLE FOR ANY DIRECT, INDIRECT, INCIDENTAL, SPECIAL, EXEMPLARY, OR
     20           * CONSEQUENTIAL DAMAGES (INCLUDING, BUT NOT LIMITED TO, PROCUREMENT OF
     21           * SUBSTITUTE GOODS OR SERVICES; LOSS OF USE, DATA, OR PROFITS; OR
     22           * BUSINESS INTERRUPTION) HOWEVER CAUSED AND ON ANY THEORY OF LIABILITY,
     23           * WHETHER IN CONTRACT, STRICT LIABILITY, OR TORT (INCLUDING NEGLIGENCE
     24           * OR OTHERWISE) ARISING IN ANY WAY OUT OF THE USE OF THIS SOFTWARE,
     25           * EVEN IF ADVISED OF THE POSSIBILITY OF SUCH DAMAGE.
     26           */
     27          
     28          /* Note: rewritten a little bit to provide error control and an OpenSSL-
     29             compatible API */
     30          
     31          #ifndef AES_DEBUG
     32          # ifndef NDEBUG
     33          #  define NDEBUG
     34          # endif
     35          #endif
     36          #include <assert.h>
     37          #include <openssl/aes.h>
     38          #include <openssl/fips.h>
     39          #include "aes_locl.h"
     40          
     41          #ifndef OPENSSL_FIPS
     42          
     43          /*
     44          Te0[x] = S [x].[02, 01, 01, 03];
     45          Te1[x] = S [x].[03, 02, 01, 01];
     46          Te2[x] = S [x].[01, 03, 02, 01];
     47          Te3[x] = S [x].[01, 01, 03, 02];
     48          
     49          Td0[x] = Si[x].[0e, 09, 0d, 0b];
     50          Td1[x] = Si[x].[0b, 0e, 09, 0d];
     51          Td2[x] = Si[x].[0d, 0b, 0e, 09];
     52          Td3[x] = Si[x].[09, 0d, 0b, 0e];
     53          Td4[x] = Si[x].[01];
     54          */
     55          

   \                                 In segment DATA_C, align 4, align-sorted
     56          static const u32 Te0[256] = {
   \                     Te0:
   \   00000000   A56363C6847C       DC32 3328402341, 4168907908, 4000806809, 4135287693, 4294111757
   \              7CF8997777EE
   \              8D7B7BF60DF2
   \              F2FF        
   \   00000014   BD6B6BD6B16F       DC32 3597364157, 3731845041, 2445657428, 1613770832, 33620227
   \              6FDE54C5C591
   \              503030600301
   \              0102        
   \   00000028   A96767CE7D2B       DC32 3462883241, 1445669757, 3892248089, 3050821474, 1303096294
   \              2B5619FEFEE7
   \              62D7D7B5E6AB
   \              AB4D        
   \   0000003C   9A7676EC45CA       DC32 3967186586, 2412431941, 528646813, 2311702848, 4202528135
   \              CA8F9D82821F
   \              40C9C989877D
   \              7DFA        
   \   00000050   15FAFAEFEB59       DC32 4026202645, 2992200171, 2387036105, 4226871307, 1101901292
   \              59B2C947478E
   \              0BF0F0FBECAD
   \              AD41        
   \   00000064   67D4D4B3FDA2       DC32 3017069671, 1604494077, 1169141738, 597466303, 1403299063
   \              A25FEAAFAF45
   \              BF9C9C23F7A4
   \              A453        
   \   00000078   967272E45BC0       DC32 3832705686, 2613100635, 1974974402, 3791519004, 1033081774
   \              C09BC2B7B775
   \              1CFDFDE1AE93
   \              933D        
   \   0000008C   6A26264C5A36       DC32 1277568618, 1815492186, 2118074177, 4126668546, 2211236943
   \              366C413F3F7E
   \              02F7F7F54FCC
   \              CC83        
   \   000000A0   5C343468F4A5       DC32 1748251740, 1369810420, 3521504564, 4193382664, 3799085459
   \              A55134E5E5D1
   \              08F1F1F99371
   \              71E2        
   \   000000B4   73D8D8AB5331       DC32 2883115123, 1647391059, 706024767, 134480908, 2512897874
   \              31623F15152A
   \              0C04040852C7
   \              C795        
   \   000000C8   652323465EC3       DC32 1176707941, 2646852446, 806885416, 932615841, 168101135, 798661301
   \              C39D28181830
   \              A19696370F05
   \              050AB59A9A2F
   \   000000E0   0907070E3612       DC32 235341577, 605164086, 461406363, 3756188221, 3454790438
   \              12249B80801B
   \              3DE2E2DF26EB
   \              EBCD        
   \   000000F4   6927274ECDB2       DC32 1311188841, 2142417613, 3933566367, 302582043, 495158174
   \              B27F9F7575EA
   \              1B0909129E83
   \              831D        
   \   00000108   742C2C582E1A       DC32 1479289972, 874125870, 907746093, 3698224818, 3025820398
   \              1A342D1B1B36
   \              B26E6EDCEE5A
   \              5AB4        
   \   0000011C   FBA0A05BF652       DC32 1537253627, 2756858614, 1983593293, 3084310113, 2108928974
   \              52A44D3B3B76
   \              61D6D6B7CEB3
   \              B37D        
   \   00000130   7B2929523EE3       DC32 1378429307, 3722699582, 1580150641, 327451799, 2790478837
   \              E3DD712F2F5E
   \              97848413F553
   \              53A6        
   \   00000144   68D1D1B90000       DC32 3117535592, 0, 3253595436, 1075847264, 3825007647, 2041688520
   \              00002CEDEDC1
   \              602020401FFC
   \              FCE3C8B1B179
   \   0000015C   ED5B5BB6BE6A       DC32 3059440621, 3563743934, 2378943302, 1740553945, 1916352843
   \              6AD446CBCB8D
   \              D9BEBE674B39
   \              3972        
   \   00000170   DE4A4A94D44C       DC32 2487896798, 2555137236, 2958579944, 2244988746, 3151024235
   \              4C98E85858B0
   \              4ACFCF856BD0
   \              D0BB        
   \   00000184   2AEFEFC5E5AA       DC32 3320835882, 1336584933, 3992714006, 2252555205, 2588757463
   \              AA4F16FBFBED
   \              C5434386D74D
   \              4D9A        
   \   00000198   553333669485       DC32 1714631509, 293963156, 2319795663, 3925473552, 67240454
   \              8511CF45458A
   \              10F9F9E90602
   \              0204        
   \   000001AC   817F7FFEF050       DC32 4269768577, 2689618160, 2017213508, 631218106, 1269344483
   \              50A0443C3C78
   \              BA9F9F25E3A8
   \              A84B        
   \   000001C0   F35151A2FEA3       DC32 2723238387, 1571005438, 2151694528, 93294474, 1066570413
   \              A35DC0404080
   \              8A8F8F05AD92
   \              923F        
   \   000001D4   BC9D9D214838       DC32 563977660, 1882732616, 4059428100, 1673313503, 2008463041
   \              387004F5F5F1
   \              DFBCBC63C1B6
   \              B677        
   \   000001E8   75DADAAF6321       DC32 2950355573, 1109467491, 537923632, 3858759450, 4260623118
   \              214230101020
   \              1AFFFFE50EF3
   \              F3FD        
   \   000001FC   6DD2D2BF4CCD       DC32 3218264685, 2177748300, 403442708, 638784309, 3287084079
   \              CD81140C0C18
   \              351313262FEC
   \              ECC3        
   \   00000210   E15F5FBEA297       DC32 3193921505, 899127202, 2286175436, 773265209, 2479146071
   \              9735CC444488
   \              3917172E57C4
   \              C493        
   \   00000224   F2A7A755827E       DC32 1437050866, 4236148354, 2050833735, 3362022572, 3126681063
   \              7EFC473D3D7A
   \              AC6464C8E75D
   \              5DBA        
   \   00000238   2B1919329573       DC32 840505643, 3866325909, 3227541664, 427917720, 2655997905
   \              73E6A06060C0
   \              98818119D14F
   \              4F9E        
   \   0000024C   7FDCDCA36622       DC32 2749160575, 1143087718, 1412049534, 999329963, 193497219
   \              22447E2A2A54
   \              AB90903B8388
   \              880B        
   \   00000260   CA46468C29EE       DC32 2353415882, 3354324521, 1807268051, 672404540, 2816401017
   \              EEC7D3B8B86B
   \              3C14142879DE
   \              DEA7        
   \   00000274   E25E5EBC1D0B       DC32 3160301282, 369822493, 2916866934, 3688947771, 1681011286
   \              0B1676DBDBAD
   \              3BE0E0DB5632
   \              3264        
   \   00000288   4E3A3A741E0A       DC32 1949973070, 336202270, 2454276571, 201721354, 1210328172
   \              0A14DB494992
   \              0A06060C6C24
   \              2448        
   \   0000029C   E45C5CB85DC2       DC32 3093060836, 2680341085, 3184776046, 1135389935, 3294782118
   \              C29F6ED3D3BD
   \              EFACAC43A662
   \              62C4        
   \   000002B0   A8919139A495       DC32 965841320, 831886756, 3554993207, 4068047243, 3588745010
   \              953137E4E4D3
   \              8B7979F232E7
   \              E7D5        
   \   000002C4   43C8C88B5937       DC32 2345191491, 1849112409, 3664604599, 26054028, 2983581028
   \              376EB76D6DDA
   \              8C8D8D0164D5
   \              D5B1        
   \   000002D8   D24E4E9CE0A9       DC32 2622377682, 1235855840, 3630984372, 2891339514, 4092916743
   \              A949B46C6CD8
   \              FA5656AC07F4
   \              F4F3        
   \   000002EC   25EAEACFAF65       DC32 3488279077, 3395642799, 4101667470, 1202630377, 268961816
   \              65CA8E7A7AF4
   \              E9AEAE471808
   \              0810        
   \   00000300   D5BABA6F8878       DC32 1874508501, 4034427016, 1243948399, 1546530418, 941366308
   \              78F06F25254A
   \              722E2E5C241C
   \              1C38        
   \   00000314   F1A6A657C7B4       DC32 1470539505, 1941222599, 2546386513, 3421038627, 2715671932
   \              B47351C6C697
   \              23E8E8CB7CDD
   \              DDA1        
   \   00000328   9C7474E8211F       DC32 3899946140, 1042226977, 2521517021, 1639824860, 227249030
   \              1F3EDD4B4B96
   \              DCBDBD61868B
   \              8B0D        
   \   0000033C   858A8A0F9070       DC32 260737669, 3765465232, 2084453954, 1907733956, 3429263018
   \              70E0423E3E7C
   \              C4B5B571AA66
   \              66CC        
   \   00000350   D84848900503       DC32 2420656344, 100860677, 4160157185, 470683154, 3261161891
   \              030601F6F6F7
   \              120E0E1CA361
   \              61C2        
   \   00000364   5F35356AF957       DC32 1781871967, 2924959737, 1773779408, 394692241, 2579611992
   \              57AED0B9B969
   \              9186861758C1
   \              C199        
   \   00000378   271D1D3AB99E       DC32 974986535, 664706745, 3655459128, 3958962195, 731420851, 571543859
   \              9E2738E1E1D9
   \              13F8F8EBB398
   \              982B33111122
   \   00000390   BB6969D270D9       DC32 3530123707, 2849626480, 126783113, 865375399, 765172662
   \              D9A9898E8E07
   \              A7949433B69B
   \              9B2D        
   \   000003A4   221E1E3C9287       DC32 1008606754, 361203602, 3387549984, 2278477385, 2857719295
   \              871520E9E9C9
   \              49CECE87FF55
   \              55AA        
   \   000003B8   782828507ADF       DC32 1344809080, 2782912378, 59542671, 1503764984, 160008576, 437062935
   \              DFA58F8C8C03
   \              F8A1A1598089
   \              8909170D0D1A
   \   000003D0   DABFBF6531E6       DC32 1707065306, 3622233649, 2218934982, 3496503480, 2185314755
   \              E6D7C6424284
   \              B86868D0C341
   \              4182        
   \   000003E4   B0999929772D       DC32 697932208, 1512910199, 504303377, 2075177163, 2824099068
   \              2D5A110F0F1E
   \              CBB0B07BFC54
   \              54A8        
   \   000003F8   D6BBBB6D3A16       DC32 1841019862, 739644986
   \              162C        
     57              0xc66363a5U, 0xf87c7c84U, 0xee777799U, 0xf67b7b8dU,
     58              0xfff2f20dU, 0xd66b6bbdU, 0xde6f6fb1U, 0x91c5c554U,
     59              0x60303050U, 0x02010103U, 0xce6767a9U, 0x562b2b7dU,
     60              0xe7fefe19U, 0xb5d7d762U, 0x4dababe6U, 0xec76769aU,
     61              0x8fcaca45U, 0x1f82829dU, 0x89c9c940U, 0xfa7d7d87U,
     62              0xeffafa15U, 0xb25959ebU, 0x8e4747c9U, 0xfbf0f00bU,
     63              0x41adadecU, 0xb3d4d467U, 0x5fa2a2fdU, 0x45afafeaU,
     64              0x239c9cbfU, 0x53a4a4f7U, 0xe4727296U, 0x9bc0c05bU,
     65              0x75b7b7c2U, 0xe1fdfd1cU, 0x3d9393aeU, 0x4c26266aU,
     66              0x6c36365aU, 0x7e3f3f41U, 0xf5f7f702U, 0x83cccc4fU,
     67              0x6834345cU, 0x51a5a5f4U, 0xd1e5e534U, 0xf9f1f108U,
     68              0xe2717193U, 0xabd8d873U, 0x62313153U, 0x2a15153fU,
     69              0x0804040cU, 0x95c7c752U, 0x46232365U, 0x9dc3c35eU,
     70              0x30181828U, 0x379696a1U, 0x0a05050fU, 0x2f9a9ab5U,
     71              0x0e070709U, 0x24121236U, 0x1b80809bU, 0xdfe2e23dU,
     72              0xcdebeb26U, 0x4e272769U, 0x7fb2b2cdU, 0xea75759fU,
     73              0x1209091bU, 0x1d83839eU, 0x582c2c74U, 0x341a1a2eU,
     74              0x361b1b2dU, 0xdc6e6eb2U, 0xb45a5aeeU, 0x5ba0a0fbU,
     75              0xa45252f6U, 0x763b3b4dU, 0xb7d6d661U, 0x7db3b3ceU,
     76              0x5229297bU, 0xdde3e33eU, 0x5e2f2f71U, 0x13848497U,
     77              0xa65353f5U, 0xb9d1d168U, 0x00000000U, 0xc1eded2cU,
     78              0x40202060U, 0xe3fcfc1fU, 0x79b1b1c8U, 0xb65b5bedU,
     79              0xd46a6abeU, 0x8dcbcb46U, 0x67bebed9U, 0x7239394bU,
     80              0x944a4adeU, 0x984c4cd4U, 0xb05858e8U, 0x85cfcf4aU,
     81              0xbbd0d06bU, 0xc5efef2aU, 0x4faaaae5U, 0xedfbfb16U,
     82              0x864343c5U, 0x9a4d4dd7U, 0x66333355U, 0x11858594U,
     83              0x8a4545cfU, 0xe9f9f910U, 0x04020206U, 0xfe7f7f81U,
     84              0xa05050f0U, 0x783c3c44U, 0x259f9fbaU, 0x4ba8a8e3U,
     85              0xa25151f3U, 0x5da3a3feU, 0x804040c0U, 0x058f8f8aU,
     86              0x3f9292adU, 0x219d9dbcU, 0x70383848U, 0xf1f5f504U,
     87              0x63bcbcdfU, 0x77b6b6c1U, 0xafdada75U, 0x42212163U,
     88              0x20101030U, 0xe5ffff1aU, 0xfdf3f30eU, 0xbfd2d26dU,
     89              0x81cdcd4cU, 0x180c0c14U, 0x26131335U, 0xc3ecec2fU,
     90              0xbe5f5fe1U, 0x359797a2U, 0x884444ccU, 0x2e171739U,
     91              0x93c4c457U, 0x55a7a7f2U, 0xfc7e7e82U, 0x7a3d3d47U,
     92              0xc86464acU, 0xba5d5de7U, 0x3219192bU, 0xe6737395U,
     93              0xc06060a0U, 0x19818198U, 0x9e4f4fd1U, 0xa3dcdc7fU,
     94              0x44222266U, 0x542a2a7eU, 0x3b9090abU, 0x0b888883U,
     95              0x8c4646caU, 0xc7eeee29U, 0x6bb8b8d3U, 0x2814143cU,
     96              0xa7dede79U, 0xbc5e5ee2U, 0x160b0b1dU, 0xaddbdb76U,
     97              0xdbe0e03bU, 0x64323256U, 0x743a3a4eU, 0x140a0a1eU,
     98              0x924949dbU, 0x0c06060aU, 0x4824246cU, 0xb85c5ce4U,
     99              0x9fc2c25dU, 0xbdd3d36eU, 0x43acacefU, 0xc46262a6U,
    100              0x399191a8U, 0x319595a4U, 0xd3e4e437U, 0xf279798bU,
    101              0xd5e7e732U, 0x8bc8c843U, 0x6e373759U, 0xda6d6db7U,
    102              0x018d8d8cU, 0xb1d5d564U, 0x9c4e4ed2U, 0x49a9a9e0U,
    103              0xd86c6cb4U, 0xac5656faU, 0xf3f4f407U, 0xcfeaea25U,
    104              0xca6565afU, 0xf47a7a8eU, 0x47aeaee9U, 0x10080818U,
    105              0x6fbabad5U, 0xf0787888U, 0x4a25256fU, 0x5c2e2e72U,
    106              0x381c1c24U, 0x57a6a6f1U, 0x73b4b4c7U, 0x97c6c651U,
    107              0xcbe8e823U, 0xa1dddd7cU, 0xe874749cU, 0x3e1f1f21U,
    108              0x964b4bddU, 0x61bdbddcU, 0x0d8b8b86U, 0x0f8a8a85U,
    109              0xe0707090U, 0x7c3e3e42U, 0x71b5b5c4U, 0xcc6666aaU,
    110              0x904848d8U, 0x06030305U, 0xf7f6f601U, 0x1c0e0e12U,
    111              0xc26161a3U, 0x6a35355fU, 0xae5757f9U, 0x69b9b9d0U,
    112              0x17868691U, 0x99c1c158U, 0x3a1d1d27U, 0x279e9eb9U,
    113              0xd9e1e138U, 0xebf8f813U, 0x2b9898b3U, 0x22111133U,
    114              0xd26969bbU, 0xa9d9d970U, 0x078e8e89U, 0x339494a7U,
    115              0x2d9b9bb6U, 0x3c1e1e22U, 0x15878792U, 0xc9e9e920U,
    116              0x87cece49U, 0xaa5555ffU, 0x50282878U, 0xa5dfdf7aU,
    117              0x038c8c8fU, 0x59a1a1f8U, 0x09898980U, 0x1a0d0d17U,
    118              0x65bfbfdaU, 0xd7e6e631U, 0x844242c6U, 0xd06868b8U,
    119              0x824141c3U, 0x299999b0U, 0x5a2d2d77U, 0x1e0f0f11U,
    120              0x7bb0b0cbU, 0xa85454fcU, 0x6dbbbbd6U, 0x2c16163aU,
    121          };

   \                                 In segment DATA_C, align 4, align-sorted
    122          static const u32 Te1[256] = {
   \                     Te1:
   \   00000000   6363C6A57C7C       DC32 2781242211, 2230877308, 2582542199, 2381740923, 234877682
   \              F8847777EE99
   \              7B7BF68DF2F2
   \              FF0D        
   \   00000014   6B6BD6BD6F6F       DC32 3184946027, 2984144751, 1418839493, 1348481072, 50462977
   \              DEB1C5C59154
   \              303060500101
   \              0203        
   \   00000028   6767CEA92B2B       DC32 2848876391, 2102799147, 434634494, 1656084439, 3863849899
   \              567DFEFEE719
   \              D7D7B562ABAB
   \              4DE6        
   \   0000003C   7676EC9ACACA       DC32 2599188086, 1167051466, 2636087938, 1082771913, 2281340285
   \              8F4582821F9D
   \              C9C989407D7D
   \              FA87        
   \   00000050   FAFAEF155959       DC32 368048890, 3954334041, 3381544775, 201060592, 3963727277
   \              B2EB47478EC9
   \              F0F0FB0BADAD
   \              41EC        
   \   00000064   D4D4B367A2A2       DC32 1739838676, 4250903202, 3930435503, 3206782108, 4149453988
   \              5FFDAFAF45EA
   \              9C9C23BFA4A4
   \              53F7        
   \   00000078   7272E496C0C0       DC32 2531553906, 1536934080, 3262494647, 484572669, 2923271059
   \              9B5BB7B775C2
   \              FDFDE11C9393
   \              3DAE        
   \   0000008C   26264C6A3636       DC32 1783375398, 1517041206, 1098792767, 49674231, 1334037708
   \              6C5A3F3F7E41
   \              F7F7F502CCCC
   \              834F        
   \   000000A0   3434685CA5A5       DC32 1550332980, 4098991525, 886171109, 150598129, 2481090929
   \              51F4E5E5D134
   \              F1F1F9087171
   \              E293        
   \   000000B4   D8D8AB733131       DC32 1940642008, 1398944049, 1059722517, 201851908, 1385547719
   \              625315152A3F
   \              0404080CC7C7
   \              9552        
   \   000000C8   23234665C3C3       DC32 1699095331, 1587397571, 674240536, 2704774806, 252314885
   \              9D5E18183028
   \              969637A10505
   \              0A0F        
   \   000000DC   9A9A2FB50707       DC32 3039795866, 151914247, 908333586, 2602270848, 1038082786
   \              0E0912122436
   \              80801B9BE2E2
   \              DF3D        
   \   000000F0   EBEBCD262727       DC32 651029483, 1766729511, 3447698098, 2682942837, 454166793
   \              4E69B2B27FCD
   \              7575EA9F0909
   \              121B        
   \   00000104   83831D9E2C2C       DC32 2652734339, 1951935532, 775166490, 758520603, 3000790638
   \              58741A1A342E
   \              1B1B362D6E6E
   \              DCB2        
   \   00000118   5A5AB4EEA0A0       DC32 4004797018, 4217086112, 4137964114, 1299594043, 1639438038
   \              5BFB5252A4F6
   \              3B3B764DD6D6
   \              B761        
   \   0000012C   B3B37DCE2929       DC32 3464344499, 2068982057, 1054729187, 1901997871, 2534638724
   \              527BE3E3DD3E
   \              2F2F5E718484
   \              1397        
   \   00000140   5353A6F5D1D1       DC32 4121318227, 1757008337, 0, 750906861, 1614815264, 535035132
   \              B96800000000
   \              EDEDC12C2020
   \              4060FCFCE31F
   \   00000158   B1B179C85B5B       DC32 3363418545, 3988151131, 3201591914, 1183697867, 3647454910
   \              B6ED6A6AD4BE
   \              CBCB8D46BEBE
   \              67D9        
   \   0000016C   3939724B4A4A       DC32 1265776953, 3734260298, 3566750796, 3903871064, 1250283471
   \              94DE4C4C98D4
   \              5858B0E8CFCF
   \              854A        
   \   00000180   D0D0BB6BEFEF       DC32 1807470800, 717615087, 3847203498, 384695291, 3313910595
   \              C52AAAAA4FE5
   \              FBFBED164343
   \              86C5        
   \   00000194   4D4D9AD73333       DC32 3617213773, 1432761139, 2484176261, 3481945413, 283769337
   \              665585851194
   \              45458ACFF9F9
   \              E910        
   \   000001A8   020204067F7F       DC32 100925954, 2180939647, 4037038160, 1148730428, 3123027871
   \              FE815050A0F0
   \              3C3C78449F9F
   \              25BA        
   \   000001BC   A8A84BE35151       DC32 3813386408, 4087501137, 4267549603, 3229630528, 2315620239
   \              A2F3A3A35DFE
   \              404080C08F8F
   \              058A        
   \   000001D0   92923FAD9D9D       DC32 2906624658, 3156319645, 1215313976, 82966005, 3747855548
   \              21BC38387048
   \              F5F5F104BCBC
   \              63DF        
   \   000001E4   B6B677C1DADA       DC32 3245848246, 1974459098, 1665278241, 807407632, 451280895
   \              AF7521214263
   \              10102030FFFF
   \              E51A        
   \   000001F8   F3F3FD0ED2D2       DC32 251524083, 1841287890, 1283575245, 337120268, 891687699, 801369324
   \              BF6DCDCD814C
   \              0C0C18141313
   \              2635ECECC32F
   \   00000210   5F5FBEE19797       DC32 3787349855, 2721421207, 3431482436, 959321879, 1469301956
   \              35A2444488CC
   \              17172E39C4C4
   \              9357        
   \   00000224   A7A755F27E7E       DC32 4065699751, 2197585534, 1199193405, 2898814052, 3887750493
   \              FC823D3D7A47
   \              6464C8AC5D5D
   \              BAE7        
   \   00000238   1919322B7373       DC32 724703513, 2514908019, 2696962144, 2551808385, 3516813135
   \              E6956060C0A0
   \              818119984F4F
   \              9ED1        
   \   0000024C   DCDCA37F2222       DC32 2141445340, 1715741218, 2119445034, 2872807568, 2198571144
   \              44662A2A547E
   \              90903BAB8888
   \              0B83        
   \   00000260   46468CCAEEEE       DC32 3398190662, 700968686, 3547052216, 1009259540, 2041044702
   \              C729B8B86BD3
   \              1414283CDEDE
   \              A779        
   \   00000274   5E5EBCE20B0B       DC32 3803995742, 487983883, 1991105499, 1004265696, 1449407026
   \              161DDBDBAD76
   \              E0E0DB3B3232
   \              6456        
   \   00000288   3A3A744E0A0A       DC32 1316239930, 504629770, 3683797321, 168560134, 1816667172
   \              141E494992DB
   \              06060C0A2424
   \              486C        
   \   0000029C   5C5CB8E4C2C2       DC32 3837287516, 1570751170, 1857934291, 4014189740, 2797888098
   \              9F5DD3D3BD6E
   \              ACAC43EF6262
   \              C4A6        
   \   000002B0   919139A89595       DC32 2822345105, 2754712981, 936633572, 2347923833, 852879335
   \              31A4E4E4D337
   \              7979F28BE7E7
   \              D532        
   \   000002C4   C8C88B433737       DC32 1133234376, 1500395319, 3084545389, 2348912013, 1689376213
   \              6E596D6DDAB7
   \              8D8D018CD5D5
   \              B164        
   \   000002D8   4E4E9CD2A9A9       DC32 3533459022, 3762923945, 3034082412, 4205598294, 133428468
   \              49E06C6CD8B4
   \              5656ACFAF4F4
   \              F307        
   \   000002EC   EAEACF256565       DC32 634383082, 2949277029, 2398386810, 3913789102, 403703816
   \              CAAF7A7AF48E
   \              AEAE47E90808
   \              1018        
   \   00000300   BABA6FD57878       DC32 3580869306, 2297460856, 1867130149, 1918643758, 607656988
   \              F08825254A6F
   \              2E2E5C721C1C
   \              3824        
   \   00000314   A6A657F1B4B4       DC32 4049053350, 3346248884, 1368901318, 600565992, 2090982877
   \              73C7C6C69751
   \              E8E8CB23DDDD
   \              A17C        
   \   00000328   7474E89C1F1F       DC32 2632479860, 557719327, 3717614411, 3697393085, 2249034635
   \              3E214B4B96DD
   \              BDBD61DC8B8B
   \              0D86        
   \   0000033C   8A8A0F857070       DC32 2232388234, 2430627952, 1115438654, 3295786421, 2865522278
   \              E0903E3E7C42
   \              B5B571C46666
   \              CCAA        
   \   00000350   484890D80303       DC32 3633334344, 84280067, 33027830, 303828494, 2747425121, 1600795957
   \              0605F6F6F701
   \              0E0E1C126161
   \              C2A335356A5F
   \   00000368   5757AEF9B9B9       DC32 4188952407, 3496589753, 2434238086, 1486471617, 658119965
   \              69D086861791
   \              C1C199581D1D
   \              3A27        
   \   0000037C   9E9E27B9E1E1       DC32 3106381470, 953803233, 334231800, 3005978776, 857870609
   \              D938F8F8EB13
   \              98982BB31111
   \              2233        
   \   00000390   6969D2BBD9D9       DC32 3151128937, 1890179545, 2298973838, 2805175444, 3056442267
   \              A9708E8E0789
   \              949433A79B9B
   \              2DB6        
   \   000003A4   1E1E3C228787       DC32 574365214, 2450884487, 550103529, 1233637070, 4289353045
   \              1592E9E9C920
   \              CECE87495555
   \              AAFF        
   \   000003B8   28285078DFDF       DC32 2018519080, 2057691103, 2399374476, 4166623649, 2148108681
   \              A57A8C8C038F
   \              A1A159F88989
   \              0980        
   \   000003CC   0D0D1A17BFBF       DC32 387583245, 3664101311, 836232934, 3330556482, 3100665960
   \              65DAE6E6D731
   \              424284C66868
   \              D0B8        
   \   000003E0   414182C39999       DC32 3280093505, 2955516313, 2002398509, 287182607, 3413881008
   \              29B02D2D5A77
   \              0F0F1E11B0B0
   \              7BCB        
   \   000003F4   5454A8FCBBBB       DC32 4238890068, 3597515707, 975967766
   \              6DD616162C3A
    123              0xa5c66363U, 0x84f87c7cU, 0x99ee7777U, 0x8df67b7bU,
    124              0x0dfff2f2U, 0xbdd66b6bU, 0xb1de6f6fU, 0x5491c5c5U,
    125              0x50603030U, 0x03020101U, 0xa9ce6767U, 0x7d562b2bU,
    126              0x19e7fefeU, 0x62b5d7d7U, 0xe64dababU, 0x9aec7676U,
    127              0x458fcacaU, 0x9d1f8282U, 0x4089c9c9U, 0x87fa7d7dU,
    128              0x15effafaU, 0xebb25959U, 0xc98e4747U, 0x0bfbf0f0U,
    129              0xec41adadU, 0x67b3d4d4U, 0xfd5fa2a2U, 0xea45afafU,
    130              0xbf239c9cU, 0xf753a4a4U, 0x96e47272U, 0x5b9bc0c0U,
    131              0xc275b7b7U, 0x1ce1fdfdU, 0xae3d9393U, 0x6a4c2626U,
    132              0x5a6c3636U, 0x417e3f3fU, 0x02f5f7f7U, 0x4f83ccccU,
    133              0x5c683434U, 0xf451a5a5U, 0x34d1e5e5U, 0x08f9f1f1U,
    134              0x93e27171U, 0x73abd8d8U, 0x53623131U, 0x3f2a1515U,
    135              0x0c080404U, 0x5295c7c7U, 0x65462323U, 0x5e9dc3c3U,
    136              0x28301818U, 0xa1379696U, 0x0f0a0505U, 0xb52f9a9aU,
    137              0x090e0707U, 0x36241212U, 0x9b1b8080U, 0x3ddfe2e2U,
    138              0x26cdebebU, 0x694e2727U, 0xcd7fb2b2U, 0x9fea7575U,
    139              0x1b120909U, 0x9e1d8383U, 0x74582c2cU, 0x2e341a1aU,
    140              0x2d361b1bU, 0xb2dc6e6eU, 0xeeb45a5aU, 0xfb5ba0a0U,
    141              0xf6a45252U, 0x4d763b3bU, 0x61b7d6d6U, 0xce7db3b3U,
    142              0x7b522929U, 0x3edde3e3U, 0x715e2f2fU, 0x97138484U,
    143              0xf5a65353U, 0x68b9d1d1U, 0x00000000U, 0x2cc1ededU,
    144              0x60402020U, 0x1fe3fcfcU, 0xc879b1b1U, 0xedb65b5bU,
    145              0xbed46a6aU, 0x468dcbcbU, 0xd967bebeU, 0x4b723939U,
    146              0xde944a4aU, 0xd4984c4cU, 0xe8b05858U, 0x4a85cfcfU,
    147              0x6bbbd0d0U, 0x2ac5efefU, 0xe54faaaaU, 0x16edfbfbU,
    148              0xc5864343U, 0xd79a4d4dU, 0x55663333U, 0x94118585U,
    149              0xcf8a4545U, 0x10e9f9f9U, 0x06040202U, 0x81fe7f7fU,
    150              0xf0a05050U, 0x44783c3cU, 0xba259f9fU, 0xe34ba8a8U,
    151              0xf3a25151U, 0xfe5da3a3U, 0xc0804040U, 0x8a058f8fU,
    152              0xad3f9292U, 0xbc219d9dU, 0x48703838U, 0x04f1f5f5U,
    153              0xdf63bcbcU, 0xc177b6b6U, 0x75afdadaU, 0x63422121U,
    154              0x30201010U, 0x1ae5ffffU, 0x0efdf3f3U, 0x6dbfd2d2U,
    155              0x4c81cdcdU, 0x14180c0cU, 0x35261313U, 0x2fc3ececU,
    156              0xe1be5f5fU, 0xa2359797U, 0xcc884444U, 0x392e1717U,
    157              0x5793c4c4U, 0xf255a7a7U, 0x82fc7e7eU, 0x477a3d3dU,
    158              0xacc86464U, 0xe7ba5d5dU, 0x2b321919U, 0x95e67373U,
    159              0xa0c06060U, 0x98198181U, 0xd19e4f4fU, 0x7fa3dcdcU,
    160              0x66442222U, 0x7e542a2aU, 0xab3b9090U, 0x830b8888U,
    161              0xca8c4646U, 0x29c7eeeeU, 0xd36bb8b8U, 0x3c281414U,
    162              0x79a7dedeU, 0xe2bc5e5eU, 0x1d160b0bU, 0x76addbdbU,
    163              0x3bdbe0e0U, 0x56643232U, 0x4e743a3aU, 0x1e140a0aU,
    164              0xdb924949U, 0x0a0c0606U, 0x6c482424U, 0xe4b85c5cU,
    165              0x5d9fc2c2U, 0x6ebdd3d3U, 0xef43acacU, 0xa6c46262U,
    166              0xa8399191U, 0xa4319595U, 0x37d3e4e4U, 0x8bf27979U,
    167              0x32d5e7e7U, 0x438bc8c8U, 0x596e3737U, 0xb7da6d6dU,
    168              0x8c018d8dU, 0x64b1d5d5U, 0xd29c4e4eU, 0xe049a9a9U,
    169              0xb4d86c6cU, 0xfaac5656U, 0x07f3f4f4U, 0x25cfeaeaU,
    170              0xafca6565U, 0x8ef47a7aU, 0xe947aeaeU, 0x18100808U,
    171              0xd56fbabaU, 0x88f07878U, 0x6f4a2525U, 0x725c2e2eU,
    172              0x24381c1cU, 0xf157a6a6U, 0xc773b4b4U, 0x5197c6c6U,
    173              0x23cbe8e8U, 0x7ca1ddddU, 0x9ce87474U, 0x213e1f1fU,
    174              0xdd964b4bU, 0xdc61bdbdU, 0x860d8b8bU, 0x850f8a8aU,
    175              0x90e07070U, 0x427c3e3eU, 0xc471b5b5U, 0xaacc6666U,
    176              0xd8904848U, 0x05060303U, 0x01f7f6f6U, 0x121c0e0eU,
    177              0xa3c26161U, 0x5f6a3535U, 0xf9ae5757U, 0xd069b9b9U,
    178              0x91178686U, 0x5899c1c1U, 0x273a1d1dU, 0xb9279e9eU,
    179              0x38d9e1e1U, 0x13ebf8f8U, 0xb32b9898U, 0x33221111U,
    180              0xbbd26969U, 0x70a9d9d9U, 0x89078e8eU, 0xa7339494U,
    181              0xb62d9b9bU, 0x223c1e1eU, 0x92158787U, 0x20c9e9e9U,
    182              0x4987ceceU, 0xffaa5555U, 0x78502828U, 0x7aa5dfdfU,
    183              0x8f038c8cU, 0xf859a1a1U, 0x80098989U, 0x171a0d0dU,
    184              0xda65bfbfU, 0x31d7e6e6U, 0xc6844242U, 0xb8d06868U,
    185              0xc3824141U, 0xb0299999U, 0x775a2d2dU, 0x111e0f0fU,
    186              0xcb7bb0b0U, 0xfca85454U, 0xd66dbbbbU, 0x3a2c1616U,
    187          };

   \                                 In segment DATA_C, align 4, align-sorted
    188          static const u32 Te2[256] = {
   \                     Te2:
   \   00000000   63C6A5637CF8       DC32 1671808611, 2089089148, 2006576759, 2072901243, 4061003762
   \              847C77EE9977
   \              7BF68D7BF2FF
   \              0DF2        
   \   00000014   6BD6BD6B6FDE       DC32 1807603307, 1873927791, 3310653893, 810573872, 16974337
   \              B16FC59154C5
   \              306050300102
   \              0301        
   \   00000028   67CEA9672B56       DC32 1739181671, 729634347, 4263110654, 3613570519, 2883997099
   \              7D2BFEE719FE
   \              D7B562D7AB4D
   \              E6AB        
   \   0000003C   76EC9A76CA8F       DC32 1989864566, 3393556426, 2191335298, 3376449993, 2106063485
   \              45CA821F9D82
   \              C98940C97DFA
   \              877D        
   \   00000050   FAEF15FA59B2       DC32 4195741690, 1508618841, 1204391495, 4027317232, 2917941677
   \              EB59478EC947
   \              F0FB0BF0AD41
   \              ECAD        
   \   00000064   D4B367D4A25F       DC32 3563566036, 2734514082, 2951366063, 2629772188, 2767672228
   \              FDA2AF45EAAF
   \              9C23BF9CA453
   \              F7A4        
   \   00000078   72E49672C09B       DC32 1922491506, 3227229120, 3082974647, 4246528509, 2477669779
   \              5BC0B775C2B7
   \              FDE11CFD933D
   \              AE93        
   \   0000008C   264C6A26366C       DC32 644500518, 911895606, 1061256767, 4144166391, 3427763148
   \              5A363F7E413F
   \              F7F502F7CC83
   \              4FCC        
   \   000000A0   34685C34A551       DC32 878471220, 2784252325, 3845444069, 4043897329, 1905517169
   \              F4A5E5D134E5
   \              F1F908F171E2
   \              9371        
   \   000000B4   D8AB73D83162       DC32 3631459288, 827548209, 356461077, 67897348, 3344078279, 593839651
   \              5331152A3F15
   \              04080C04C795
   \              52C723466523
   \   000000CC   C39D5EC31830       DC32 3277757891, 405286936, 2527147926, 84871685, 2595565466, 118033927
   \              28189637A196
   \              050A0F059A2F
   \              B59A070E0907
   \   000000E4   12243612801B       DC32 305538066, 2157648768, 3795705826, 3945188843, 661212711
   \              9B80E2DF3DE2
   \              EBCD26EB274E
   \              6927        
   \   000000F8   B27FCDB275EA       DC32 2999812018, 1973414517, 152769033, 2208177539, 745822252
   \              9F7509121B09
   \              831D9E832C58
   \              742C        
   \   0000010C   1A342E1A1B36       DC32 439235610, 455947803, 1857215598, 1525593178, 2700827552
   \              2D1B6EDCB26E
   \              5AB4EE5AA05B
   \              FBA0        
   \   00000120   52A4F6523B76       DC32 1391895634, 994932283, 3596728278, 3016654259, 695947817
   \              4D3BD6B761D6
   \              B37DCEB32952
   \              7B29        
   \   00000134   E3DD3EE32F5E       DC32 3812548067, 795958831, 2224493444, 1408607827, 3513301457, 0
   \              712F84139784
   \              53A6F553D1B9
   \              68D100000000
   \   0000014C   EDC12CED2040       DC32 3979133421, 543178784, 4229948412, 2982705585, 1542305371
   \              6020FCE31FFC
   \              B179C8B15BB6
   \              ED5B        
   \   00000160   6AD4BE6ACB8D       DC32 1790891114, 3410398667, 3201918910, 961245753, 1256100938
   \              46CBBE67D9BE
   \              39724B394A94
   \              DE4A        
   \   00000174   4C98D44C58B0       DC32 1289001036, 1491644504, 3477767631, 3496721360, 4012557807
   \              E858CF854ACF
   \              D0BB6BD0EFC5
   \              2AEF        
   \   00000188   AA4FE5AAFBED       DC32 2867154858, 4212583931, 1137018435, 1305975373, 861234739
   \              16FB4386C543
   \              4D9AD74D3366
   \              5533        
   \   0000019C   85119485458A       DC32 2241073541, 1171229253, 4178635257, 33948674, 2139225727
   \              CF45F9E910F9
   \              020406027FFE
   \              817F        
   \   000001B0   50A0F0503C78       DC32 1357946960, 1011120188, 2679776671, 2833468328, 1374921297
   \              443C9F25BA9F
   \              A84BE3A851A2
   \              F351        
   \   000001C4   A35DFEA34080       DC32 2751356323, 1086357568, 2408187279, 2460827538, 2646352285
   \              C0408F058A8F
   \              923FAD929D21
   \              BC9D        
   \   000001D8   38704838F5F1       DC32 944271416, 4110742005, 3168756668, 3066132406, 3665145818
   \              04F5BC63DFBC
   \              B677C1B6DAAF
   \              75DA        
   \   000001EC   214263211020       DC32 560153121, 271589392, 4279952895, 4077846003, 3530407890
   \              3010FFE51AFF
   \              F3FD0EF3D2BF
   \              6DD2        
   \   00000200   CD814CCD0C18       DC32 3444343245, 202643468, 322250259, 3962553324, 1608629855
   \              140C13263513
   \              ECC32FEC5FBE
   \              E15F        
   \   00000214   9735A2974488       DC32 2543990167, 1154254916, 389623319, 3294073796, 2817676711
   \              CC44172E3917
   \              C49357C4A755
   \              F2A7        
   \   00000228   7EFC827E3D7A       DC32 2122513534, 1028094525, 1689045092, 1575467613, 422261273
   \              473D64C8AC64
   \              5DBAE75D1932
   \              2B19        
   \   0000023C   73E6957360C0       DC32 1939203699, 1621147744, 2174228865, 1339137615, 3699352540
   \              A06081199881
   \              4F9ED14FDCA3
   \              7FDC        
   \   00000250   224466222A54       DC32 577127458, 712922154, 2427141008, 2290289544, 1187679302
   \              7E2A903BAB90
   \              880B8388468C
   \              CA46        
   \   00000264   EEC729EEB86B       DC32 3995715566, 3100863416, 339486740, 3732514782, 1591917662
   \              D3B814283C14
   \              DEA779DE5EBC
   \              E25E        
   \   00000278   0B161D0BDBAD       DC32 186455563, 3681988059, 3762019296, 844522546, 978220090, 169743370
   \              76DBE0DB3BE0
   \              326456323A74
   \              4E3A0A141E0A
   \   00000290   4992DB49060C       DC32 1239126601, 101321734, 611076132, 1558493276, 3260915650
   \              0A0624486C24
   \              5CB8E45CC29F
   \              5DC2        
   \   000002A4   D3BD6ED3AC43       DC32 3547250131, 2901361580, 1655096418, 2443721105, 2510565781
   \              EFAC62C4A662
   \              9139A8919531
   \              A495        
   \   000002B8   E4D337E479F2       DC32 3828863972, 2039214713, 3878868455, 3359869896, 928607799
   \              8B79E7D532E7
   \              C88B43C8376E
   \              5937        
   \   000002CC   6DDAB76D8D01       DC32 1840765549, 2374762893, 3580146133, 1322425422, 2850048425
   \              8C8DD5B164D5
   \              4E9CD24EA949
   \              E0A9        
   \   000002E0   6CD8B46C56AC       DC32 1823791212, 1459268694, 4094161908, 3928346602, 1706019429
   \              FA56F4F307F4
   \              EACF25EA65CA
   \              AF65        
   \   000002F4   7AF48E7AAE47       DC32 2056189050, 2934523822, 135794696, 3134549946, 2022240376
   \              E9AE08101808
   \              BA6FD5BA78F0
   \              8878        
   \   00000308   254A6F252E5C       DC32 628050469, 779246638, 472135708, 2800834470, 3032970164
   \              722E1C38241C
   \              A657F1A6B473
   \              C7B4        
   \   0000031C   C69751C6E8CB       DC32 3327236038, 3894660072, 3715932637, 1956440180, 522272287
   \              23E8DDA17CDD
   \              74E89C741F3E
   \              211F        
   \   00000330   4B96DD4BBD61       DC32 1272813131, 3185336765, 2340818315, 2323976074, 1888542832
   \              DCBD8B0D868B
   \              8A0F858A70E0
   \              9070        
   \   00000344   3E7C423EB571       DC32 1044544574, 3049550261, 1722469478, 1222152264, 50660867
   \              C4B566CCAA66
   \              4890D8480306
   \              0503        
   \   00000358   F6F701F60E1C       DC32 4127324150, 236067854, 1638122081, 895445557, 1475980887
   \              120E61C2A361
   \              356A5F3557AE
   \              F957        
   \   0000036C   B969D0B98617       DC32 3117443513, 2257655686, 3243809217, 489110045, 2662934430
   \              9186C19958C1
   \              1D3A271D9E27
   \              B99E        
   \   00000380   E1D938E1F8EB       DC32 3778599393, 4162055160, 2561878936, 288563729, 1773916777
   \              13F8982BB398
   \              1122331169D2
   \              BB69        
   \   00000394   D9A970D98E07       DC32 3648039385, 2391345038, 2493985684, 2612407707, 505560094
   \              898E9433A794
   \              9B2DB69B1E3C
   \              221E        
   \   000003A8   87159287E9C9       DC32 2274497927, 3911240169, 3460925390, 1442818645, 678973480
   \              20E9CE8749CE
   \              55AAFF552850
   \              7828        
   \   000003BC   DFA57ADF8C03       DC32 3749357023, 2358182796, 2717407649, 2306869641, 219617805
   \              8F8CA159F8A1
   \              890980890D1A
   \              170D        
   \   000003D0   BF65DABFE6D7       DC32 3218761151, 3862026214, 1120306242, 1756942440, 1103331905
   \              31E64284C642
   \              68D0B8684182
   \              C341        
   \   000003E4   9929B0992D5A       DC32 2578459033, 762796589, 252780047, 2966125488, 1425844308
   \              772D0F1E110F
   \              B07BCBB054A8
   \              FC54        
   \   000003F8   BB6DD6BB162C       DC32 3151392187, 372911126
   \              3A16        
    189              0x63a5c663U, 0x7c84f87cU, 0x7799ee77U, 0x7b8df67bU,
    190              0xf20dfff2U, 0x6bbdd66bU, 0x6fb1de6fU, 0xc55491c5U,
    191              0x30506030U, 0x01030201U, 0x67a9ce67U, 0x2b7d562bU,
    192              0xfe19e7feU, 0xd762b5d7U, 0xabe64dabU, 0x769aec76U,
    193              0xca458fcaU, 0x829d1f82U, 0xc94089c9U, 0x7d87fa7dU,
    194              0xfa15effaU, 0x59ebb259U, 0x47c98e47U, 0xf00bfbf0U,
    195              0xadec41adU, 0xd467b3d4U, 0xa2fd5fa2U, 0xafea45afU,
    196              0x9cbf239cU, 0xa4f753a4U, 0x7296e472U, 0xc05b9bc0U,
    197              0xb7c275b7U, 0xfd1ce1fdU, 0x93ae3d93U, 0x266a4c26U,
    198              0x365a6c36U, 0x3f417e3fU, 0xf702f5f7U, 0xcc4f83ccU,
    199              0x345c6834U, 0xa5f451a5U, 0xe534d1e5U, 0xf108f9f1U,
    200              0x7193e271U, 0xd873abd8U, 0x31536231U, 0x153f2a15U,
    201              0x040c0804U, 0xc75295c7U, 0x23654623U, 0xc35e9dc3U,
    202              0x18283018U, 0x96a13796U, 0x050f0a05U, 0x9ab52f9aU,
    203              0x07090e07U, 0x12362412U, 0x809b1b80U, 0xe23ddfe2U,
    204              0xeb26cdebU, 0x27694e27U, 0xb2cd7fb2U, 0x759fea75U,
    205              0x091b1209U, 0x839e1d83U, 0x2c74582cU, 0x1a2e341aU,
    206              0x1b2d361bU, 0x6eb2dc6eU, 0x5aeeb45aU, 0xa0fb5ba0U,
    207              0x52f6a452U, 0x3b4d763bU, 0xd661b7d6U, 0xb3ce7db3U,
    208              0x297b5229U, 0xe33edde3U, 0x2f715e2fU, 0x84971384U,
    209              0x53f5a653U, 0xd168b9d1U, 0x00000000U, 0xed2cc1edU,
    210              0x20604020U, 0xfc1fe3fcU, 0xb1c879b1U, 0x5bedb65bU,
    211              0x6abed46aU, 0xcb468dcbU, 0xbed967beU, 0x394b7239U,
    212              0x4ade944aU, 0x4cd4984cU, 0x58e8b058U, 0xcf4a85cfU,
    213              0xd06bbbd0U, 0xef2ac5efU, 0xaae54faaU, 0xfb16edfbU,
    214              0x43c58643U, 0x4dd79a4dU, 0x33556633U, 0x85941185U,
    215              0x45cf8a45U, 0xf910e9f9U, 0x02060402U, 0x7f81fe7fU,
    216              0x50f0a050U, 0x3c44783cU, 0x9fba259fU, 0xa8e34ba8U,
    217              0x51f3a251U, 0xa3fe5da3U, 0x40c08040U, 0x8f8a058fU,
    218              0x92ad3f92U, 0x9dbc219dU, 0x38487038U, 0xf504f1f5U,
    219              0xbcdf63bcU, 0xb6c177b6U, 0xda75afdaU, 0x21634221U,
    220              0x10302010U, 0xff1ae5ffU, 0xf30efdf3U, 0xd26dbfd2U,
    221              0xcd4c81cdU, 0x0c14180cU, 0x13352613U, 0xec2fc3ecU,
    222              0x5fe1be5fU, 0x97a23597U, 0x44cc8844U, 0x17392e17U,
    223              0xc45793c4U, 0xa7f255a7U, 0x7e82fc7eU, 0x3d477a3dU,
    224              0x64acc864U, 0x5de7ba5dU, 0x192b3219U, 0x7395e673U,
    225              0x60a0c060U, 0x81981981U, 0x4fd19e4fU, 0xdc7fa3dcU,
    226              0x22664422U, 0x2a7e542aU, 0x90ab3b90U, 0x88830b88U,
    227              0x46ca8c46U, 0xee29c7eeU, 0xb8d36bb8U, 0x143c2814U,
    228              0xde79a7deU, 0x5ee2bc5eU, 0x0b1d160bU, 0xdb76addbU,
    229              0xe03bdbe0U, 0x32566432U, 0x3a4e743aU, 0x0a1e140aU,
    230              0x49db9249U, 0x060a0c06U, 0x246c4824U, 0x5ce4b85cU,
    231              0xc25d9fc2U, 0xd36ebdd3U, 0xacef43acU, 0x62a6c462U,
    232              0x91a83991U, 0x95a43195U, 0xe437d3e4U, 0x798bf279U,
    233              0xe732d5e7U, 0xc8438bc8U, 0x37596e37U, 0x6db7da6dU,
    234              0x8d8c018dU, 0xd564b1d5U, 0x4ed29c4eU, 0xa9e049a9U,
    235              0x6cb4d86cU, 0x56faac56U, 0xf407f3f4U, 0xea25cfeaU,
    236              0x65afca65U, 0x7a8ef47aU, 0xaee947aeU, 0x08181008U,
    237              0xbad56fbaU, 0x7888f078U, 0x256f4a25U, 0x2e725c2eU,
    238              0x1c24381cU, 0xa6f157a6U, 0xb4c773b4U, 0xc65197c6U,
    239              0xe823cbe8U, 0xdd7ca1ddU, 0x749ce874U, 0x1f213e1fU,
    240              0x4bdd964bU, 0xbddc61bdU, 0x8b860d8bU, 0x8a850f8aU,
    241              0x7090e070U, 0x3e427c3eU, 0xb5c471b5U, 0x66aacc66U,
    242              0x48d89048U, 0x03050603U, 0xf601f7f6U, 0x0e121c0eU,
    243              0x61a3c261U, 0x355f6a35U, 0x57f9ae57U, 0xb9d069b9U,
    244              0x86911786U, 0xc15899c1U, 0x1d273a1dU, 0x9eb9279eU,
    245              0xe138d9e1U, 0xf813ebf8U, 0x98b32b98U, 0x11332211U,
    246              0x69bbd269U, 0xd970a9d9U, 0x8e89078eU, 0x94a73394U,
    247              0x9bb62d9bU, 0x1e223c1eU, 0x87921587U, 0xe920c9e9U,
    248              0xce4987ceU, 0x55ffaa55U, 0x28785028U, 0xdf7aa5dfU,
    249              0x8c8f038cU, 0xa1f859a1U, 0x89800989U, 0x0d171a0dU,
    250              0xbfda65bfU, 0xe631d7e6U, 0x42c68442U, 0x68b8d068U,
    251              0x41c38241U, 0x99b02999U, 0x2d775a2dU, 0x0f111e0fU,
    252              0xb0cb7bb0U, 0x54fca854U, 0xbbd66dbbU, 0x163a2c16U,
    253          };

   \                                 In segment DATA_C, align 4, align-sorted
    254          static const u32 Te3[256] = {
   \                     Te3:
   \   00000000   C6A56363F884       DC32 1667474886, 2088535288, 2004326894, 2071694838, 4075949567
   \              7C7CEE997777
   \              F68D7B7BFF0D
   \              F2F2        
   \   00000014   D6BD6B6BDEB1       DC32 1802223062, 1869591006, 3318043793, 808472672, 16843522
   \              6F6F9154C5C5
   \              605030300203
   \              0101        
   \   00000028   CEA96767567D       DC32 1734846926, 724270422, 4278065639, 3621216949, 2880169549
   \              2B2BE719FEFE
   \              B562D7D74DE6
   \              ABAB        
   \   0000003C   EC9A76768F45       DC32 1987484396, 3402253711, 2189597983, 3385409673, 2105378810
   \              CACA1F9D8282
   \              8940C9C9FA87
   \              7D7D        
   \   00000050   EF15FAFAB2EB       DC32 4210693615, 1499065266, 1195886990, 4042263547, 2913856577
   \              59598EC94747
   \              FB0BF0F041EC
   \              ADAD        
   \   00000064   B367D4D45FFD       DC32 3570689971, 2728590687, 2947541573, 2627518243, 2762274643
   \              A2A245EAAFAF
   \              23BF9C9C53F7
   \              A4A4        
   \   00000078   E49672729B5B       DC32 1920112356, 3233831835, 3082273397, 4261223649, 2475929149
   \              C0C075C2B7B7
   \              E11CFDFD3DAE
   \              9393        
   \   0000008C   4C6A26266C5A       DC32 640051788, 909531756, 1061110142, 4160160501, 3435941763
   \              36367E413F3F
   \              F502F7F7834F
   \              CCCC        
   \   000000A0   685C343451F4       DC32 875846760, 2779116625, 3857003729, 4059105529, 1903268834
   \              A5A5D134E5E5
   \              F908F1F1E293
   \              7171        
   \   000000B4   AB73D8D86253       DC32 3638064043, 825316194, 353713962, 67374088, 3351728789, 589522246
   \              31312A3F1515
   \              080C04049552
   \              C7C746652323
   \   000000CC   9D5EC3C33028       DC32 3284360861, 404236336, 2526454071, 84217610, 2593830191, 117901582
   \              181837A19696
   \              0A0F05052FB5
   \              9A9A0E090707
   \   000000E4   243612121B9B       DC32 303183396, 2155911963, 3806477791, 3958056653, 656894286
   \              8080DF3DE2E2
   \              CD26EBEB4E69
   \              2727        
   \   000000F8   7FCDB2B2EA9F       DC32 2998062463, 1970642922, 151591698, 2206440989, 741110872
   \              7575121B0909
   \              1D9E83835874
   \              2C2C        
   \   0000010C   342E1A1A362D       DC32 437923380, 454765878, 1852748508, 1515908788, 2694904667
   \              1B1BDCB26E6E
   \              B4EE5A5A5BFB
   \              A0A0        
   \   00000120   A4F65252764D       DC32 1381168804, 993742198, 3604373943, 3014905469, 690584402
   \              3B3BB761D6D6
   \              7DCEB3B3527B
   \              2929        
   \   00000134   DD3EE3E35E71       DC32 3823320797, 791638366, 2223281939, 1398011302, 3520161977, 0
   \              2F2F13978484
   \              A6F55353B968
   \              D1D100000000
   \   0000014C   C12CEDED4060       DC32 3991743681, 538992704, 4244381667, 2981218425, 1532751286
   \              2020E31FFCFC
   \              79C8B1B1B6ED
   \              5B5B        
   \   00000160   D4BE6A6A8D46       DC32 1785380564, 3419096717, 3200178535, 960056178, 1246420628
   \              CBCB67D9BEBE
   \              724B393994DE
   \              4A4A        
   \   00000174   98D44C4CB0E8       DC32 1280103576, 1482221744, 3486468741, 3503319995, 4025428677
   \              5858854ACFCF
   \              BB6BD0D0C52A
   \              EFEF        
   \   00000188   4FE5AAAAED16       DC32 2863326543, 4227536621, 1128514950, 1296947098, 859002214
   \              FBFB86C54343
   \              9AD74D4D6655
   \              3333        
   \   0000019C   119485858ACF       DC32 2240123921, 1162203018, 4193849577, 33687044, 2139062782
   \              4545E910F9F9
   \              04060202FE81
   \              7F7F        
   \   000001B0   A0F050507844       DC32 1347481760, 1010582648, 2678045221, 2829640523, 1364325282
   \              3C3C25BA9F9F
   \              4BE3A8A8A2F3
   \              5151        
   \   000001C4   5DFEA3A380C0       DC32 2745433693, 1077985408, 2408548869, 2459086143, 2644360225
   \              4040058A8F8F
   \              3FAD929221BC
   \              9D9D        
   \   000001D8   70483838F104       DC32 943212656, 4126475505, 3166494563, 3065430391, 3671750063
   \              F5F563DFBCBC
   \              77C1B6B6AF75
   \              DADA        
   \   000001EC   426321212030       DC32 555836226, 269496352, 4294908645, 4092792573, 3537006015
   \              1010E51AFFFF
   \              FD0EF3F3BF6D
   \              D2D2        
   \   00000200   814CCDCD1814       DC32 3452783745, 202118168, 320025894, 3974901699, 1600119230
   \              0C0C26351313
   \              C32FECECBEE1
   \              5F5F        
   \   00000214   35A2979788CC       DC32 2543297077, 1145359496, 387397934, 3301201811, 2812801621
   \              44442E391717
   \              9357C4C455F2
   \              A7A7        
   \   00000228   FC827E7E7A47       DC32 2122220284, 1027426170, 1684319432, 1566435258, 421079858
   \              3D3DC8AC6464
   \              BAE75D5D322B
   \              1919        
   \   0000023C   E6957373C0A0       DC32 1936954854, 1616945344, 2172753945, 1330631070, 3705438115
   \              606019988181
   \              9ED14F4FA37F
   \              DCDC        
   \   00000250   44662222547E       DC32 572679748, 707427924, 2425400123, 2290647819, 1179044492
   \              2A2A3BAB9090
   \              0B8388888CCA
   \              4646        
   \   00000264   C729EEEE6BD3       DC32 4008585671, 3099120491, 336870440, 3739122087, 1583276732
   \              B8B8283C1414
   \              A779DEDEBCE2
   \              5E5E        
   \   00000278   161D0B0BAD76       DC32 185277718, 3688593069, 3772791771, 842159716, 976899700, 168435220
   \              DBDBDB3BE0E0
   \              64563232744E
   \              3A3A141E0A0A
   \   00000290   92DB49490C0A       DC32 1229577106, 101059084, 606366792, 1549591736, 3267517855
   \              0606486C2424
   \              B8E45C5C9F5D
   \              C2C2        
   \   000002A4   BD6ED3D343EF       DC32 3553849021, 2897014595, 1650632388, 2442242105, 2509612081
   \              ACACC4A66262
   \              39A8919131A4
   \              9595        
   \   000002B8   D337E4E4F28B       DC32 3840161747, 2038008818, 3890688725, 3368567691, 926374254
   \              7979D532E7E7
   \              8B43C8C86E59
   \              3737        
   \   000002CC   DAB76D6D018C       DC32 1835907034, 2374863873, 3587531953, 1313788572, 2846482505
   \              8D8DB164D5D5
   \              9CD24E4E49E0
   \              A9A9        
   \   000002E0   D8B46C6CACFA       DC32 1819063512, 1448540844, 4109633523, 3941213647, 1701162954
   \              5656F307F4F4
   \              CF25EAEACAAF
   \              6565        
   \   000002F4   F48E7A7A47E9       DC32 2054852340, 2930698567, 134748176, 3132806511, 2021165296
   \              AEAE10180808
   \              6FD5BABAF088
   \              7878        
   \   00000308   4A6F25255C72       DC32 623210314, 774795868, 471606328, 2795958615, 3031746419
   \              2E2E38241C1C
   \              57F1A6A673C7
   \              B4B4        
   \   0000031C   9751C6C6CB23       DC32 3334885783, 3907527627, 3722280097, 1953799400, 522133822
   \              E8E8A17CDDDD
   \              E89C74743E21
   \              1F1F        
   \   00000330   96DD4B4B61DC       DC32 1263263126, 3183336545, 2341176845, 2324333839, 1886425312
   \              BDBD0D868B8B
   \              0F858A8AE090
   \              7070        
   \   00000344   7C423E3E71C4       DC32 1044267644, 3048588401, 1718004428, 1212733584, 50529542
   \              B5B5CCAA6666
   \              90D848480605
   \              0303        
   \   00000358   F701F6F61C12       DC32 4143317495, 235803164, 1633788866, 892690282, 1465383342
   \              0E0EC2A36161
   \              6A5F3535AEF9
   \              5757        
   \   0000036C   69D0B9B91791       DC32 3115962473, 2256965911, 3250673817, 488449850, 2661202215
   \              86869958C1C1
   \              3A271D1D27B9
   \              9E9E        
   \   00000380   D938E1E1EB13       DC32 3789633753, 4177007595, 2560144171, 286339874, 1768537042
   \              F8F82BB39898
   \              22331111D2BB
   \              6969        
   \   00000394   A970D9D90789       DC32 3654906025, 2391705863, 2492770099, 2610673197, 505291324
   \              8E8E33A79494
   \              2DB69B9B3C22
   \              1E1E        
   \   000003A8   15928787C920       DC32 2273808917, 3924369609, 3469625735, 1431699370, 673740880
   \              E9E98749CECE
   \              AAFF55555078
   \              2828        
   \   000003BC   A57ADFDF038F       DC32 3755965093, 2358021891, 2711746649, 2307489801, 218961690
   \              8C8C59F8A1A1
   \              098089891A17
   \              0D0D        
   \   000003D0   65DABFBFD731       DC32 3217021541, 3873845719, 1111672452, 1751693520, 1094828930
   \              E6E684C64242
   \              D0B8686882C3
   \              4141        
   \   000003E4   29B099995A77       DC32 2576986153, 757954394, 252645662, 2964376443, 1414855848
   \              2D2D1E110F0F
   \              7BCBB0B0A8FC
   \              5454        
   \   000003F8   6DD6BBBB2C3A       DC32 3149649517, 370555436
   \              1616        
    255              0x6363a5c6U, 0x7c7c84f8U, 0x777799eeU, 0x7b7b8df6U,
    256              0xf2f20dffU, 0x6b6bbdd6U, 0x6f6fb1deU, 0xc5c55491U,
    257              0x30305060U, 0x01010302U, 0x6767a9ceU, 0x2b2b7d56U,
    258              0xfefe19e7U, 0xd7d762b5U, 0xababe64dU, 0x76769aecU,
    259              0xcaca458fU, 0x82829d1fU, 0xc9c94089U, 0x7d7d87faU,
    260              0xfafa15efU, 0x5959ebb2U, 0x4747c98eU, 0xf0f00bfbU,
    261              0xadadec41U, 0xd4d467b3U, 0xa2a2fd5fU, 0xafafea45U,
    262              0x9c9cbf23U, 0xa4a4f753U, 0x727296e4U, 0xc0c05b9bU,
    263              0xb7b7c275U, 0xfdfd1ce1U, 0x9393ae3dU, 0x26266a4cU,
    264              0x36365a6cU, 0x3f3f417eU, 0xf7f702f5U, 0xcccc4f83U,
    265              0x34345c68U, 0xa5a5f451U, 0xe5e534d1U, 0xf1f108f9U,
    266              0x717193e2U, 0xd8d873abU, 0x31315362U, 0x15153f2aU,
    267              0x04040c08U, 0xc7c75295U, 0x23236546U, 0xc3c35e9dU,
    268              0x18182830U, 0x9696a137U, 0x05050f0aU, 0x9a9ab52fU,
    269              0x0707090eU, 0x12123624U, 0x80809b1bU, 0xe2e23ddfU,
    270              0xebeb26cdU, 0x2727694eU, 0xb2b2cd7fU, 0x75759feaU,
    271              0x09091b12U, 0x83839e1dU, 0x2c2c7458U, 0x1a1a2e34U,
    272              0x1b1b2d36U, 0x6e6eb2dcU, 0x5a5aeeb4U, 0xa0a0fb5bU,
    273              0x5252f6a4U, 0x3b3b4d76U, 0xd6d661b7U, 0xb3b3ce7dU,
    274              0x29297b52U, 0xe3e33eddU, 0x2f2f715eU, 0x84849713U,
    275              0x5353f5a6U, 0xd1d168b9U, 0x00000000U, 0xeded2cc1U,
    276              0x20206040U, 0xfcfc1fe3U, 0xb1b1c879U, 0x5b5bedb6U,
    277              0x6a6abed4U, 0xcbcb468dU, 0xbebed967U, 0x39394b72U,
    278              0x4a4ade94U, 0x4c4cd498U, 0x5858e8b0U, 0xcfcf4a85U,
    279              0xd0d06bbbU, 0xefef2ac5U, 0xaaaae54fU, 0xfbfb16edU,
    280              0x4343c586U, 0x4d4dd79aU, 0x33335566U, 0x85859411U,
    281              0x4545cf8aU, 0xf9f910e9U, 0x02020604U, 0x7f7f81feU,
    282              0x5050f0a0U, 0x3c3c4478U, 0x9f9fba25U, 0xa8a8e34bU,
    283              0x5151f3a2U, 0xa3a3fe5dU, 0x4040c080U, 0x8f8f8a05U,
    284              0x9292ad3fU, 0x9d9dbc21U, 0x38384870U, 0xf5f504f1U,
    285              0xbcbcdf63U, 0xb6b6c177U, 0xdada75afU, 0x21216342U,
    286              0x10103020U, 0xffff1ae5U, 0xf3f30efdU, 0xd2d26dbfU,
    287              0xcdcd4c81U, 0x0c0c1418U, 0x13133526U, 0xecec2fc3U,
    288              0x5f5fe1beU, 0x9797a235U, 0x4444cc88U, 0x1717392eU,
    289              0xc4c45793U, 0xa7a7f255U, 0x7e7e82fcU, 0x3d3d477aU,
    290              0x6464acc8U, 0x5d5de7baU, 0x19192b32U, 0x737395e6U,
    291              0x6060a0c0U, 0x81819819U, 0x4f4fd19eU, 0xdcdc7fa3U,
    292              0x22226644U, 0x2a2a7e54U, 0x9090ab3bU, 0x8888830bU,
    293              0x4646ca8cU, 0xeeee29c7U, 0xb8b8d36bU, 0x14143c28U,
    294              0xdede79a7U, 0x5e5ee2bcU, 0x0b0b1d16U, 0xdbdb76adU,
    295              0xe0e03bdbU, 0x32325664U, 0x3a3a4e74U, 0x0a0a1e14U,
    296              0x4949db92U, 0x06060a0cU, 0x24246c48U, 0x5c5ce4b8U,
    297              0xc2c25d9fU, 0xd3d36ebdU, 0xacacef43U, 0x6262a6c4U,
    298              0x9191a839U, 0x9595a431U, 0xe4e437d3U, 0x79798bf2U,
    299              0xe7e732d5U, 0xc8c8438bU, 0x3737596eU, 0x6d6db7daU,
    300              0x8d8d8c01U, 0xd5d564b1U, 0x4e4ed29cU, 0xa9a9e049U,
    301              0x6c6cb4d8U, 0x5656faacU, 0xf4f407f3U, 0xeaea25cfU,
    302              0x6565afcaU, 0x7a7a8ef4U, 0xaeaee947U, 0x08081810U,
    303              0xbabad56fU, 0x787888f0U, 0x25256f4aU, 0x2e2e725cU,
    304              0x1c1c2438U, 0xa6a6f157U, 0xb4b4c773U, 0xc6c65197U,
    305              0xe8e823cbU, 0xdddd7ca1U, 0x74749ce8U, 0x1f1f213eU,
    306              0x4b4bdd96U, 0xbdbddc61U, 0x8b8b860dU, 0x8a8a850fU,
    307              0x707090e0U, 0x3e3e427cU, 0xb5b5c471U, 0x6666aaccU,
    308              0x4848d890U, 0x03030506U, 0xf6f601f7U, 0x0e0e121cU,
    309              0x6161a3c2U, 0x35355f6aU, 0x5757f9aeU, 0xb9b9d069U,
    310              0x86869117U, 0xc1c15899U, 0x1d1d273aU, 0x9e9eb927U,
    311              0xe1e138d9U, 0xf8f813ebU, 0x9898b32bU, 0x11113322U,
    312              0x6969bbd2U, 0xd9d970a9U, 0x8e8e8907U, 0x9494a733U,
    313              0x9b9bb62dU, 0x1e1e223cU, 0x87879215U, 0xe9e920c9U,
    314              0xcece4987U, 0x5555ffaaU, 0x28287850U, 0xdfdf7aa5U,
    315              0x8c8c8f03U, 0xa1a1f859U, 0x89898009U, 0x0d0d171aU,
    316              0xbfbfda65U, 0xe6e631d7U, 0x4242c684U, 0x6868b8d0U,
    317              0x4141c382U, 0x9999b029U, 0x2d2d775aU, 0x0f0f111eU,
    318              0xb0b0cb7bU, 0x5454fca8U, 0xbbbbd66dU, 0x16163a2cU,
    319          };
    320          

   \                                 In segment DATA_C, align 4, align-sorted
    321          static const u32 Td0[256] = {
   \                     Td0:
   \   00000000   50A7F4515365       DC32 1374988112, 2118214995, 437757123, 975658646, 1001089995
   \              417EC3A4171A
   \              965E273ACB6B
   \              AB3B        
   \   00000014   F1459D1FAB58       DC32 530400753, 2902087851, 1273168787, 540080725, 2910219766
   \              FAAC9303E34B
   \              55FA3020F66D
   \              76AD        
   \   00000028   9176CC88254C       DC32 2295101073, 4110568485, 1340463100, 3307916247, 641025152
   \              02F5FCD7E54F
   \              D7CB2AC58044
   \              3526        
   \   0000003C   8FA362B5495A       DC32 3043140495, 3736164937, 632953703, 1172967064, 1576976609
   \              B1DE671BBA25
   \              980EEA45E1C0
   \              FE5D        
   \   00000050   02752FC312F0       DC32 3274667266, 2169303058, 2370213795, 1809054150, 59727847
   \              4C81A397468D
   \              C6F9D36BE75F
   \              8F03        
   \   00000064   959C9215EB7A       DC32 361929877, 3211623147, 2505202138, 3569255213, 1484005843
   \              6DBFDA595295
   \              2D83BED4D321
   \              7458        
   \   00000078   2969E04944C8       DC32 1239443753, 2395588676, 1975683434, 4102977912, 2572697195
   \              C98E6A89C275
   \              78798EF46B3E
   \              5899        
   \   0000008C   DD71B927B64F       DC32 666464733, 3202437046, 4035489047, 3374361702, 2110667444
   \              E1BE17AD88F0
   \              66AC20C9B43A
   \              CE7D        
   \   000000A0   184ADF638231       DC32 1675577880, 3843699074, 2538681184, 1649639237, 2976151520
   \              1AE560335197
   \              457F5362E077
   \              64B1        
   \   000000B4   84AE6BBB1CA0       DC32 3144396420, 4269907996, 4178062228, 1883793496, 2403728665
   \              81FE942B08F9
   \              5868487019FD
   \              458F        
   \   000000C8   876CDE94B7F8       DC32 2497604743, 1383856311, 2876494627, 1917518562, 3810496343
   \              7B5223D373AB
   \              E2024B72578F
   \              1FE3        
   \   000000DC   2AAB55660728       DC32 1716890410, 3001755655, 800440835, 2261089178, 3543599269
   \              EBB203C2B52F
   \              9A7BC586A508
   \              37D3        
   \   000000F0   F2872830B2A5       DC32 807962610, 599762354, 33778362, 3977675356, 2328828971, 2809771154
   \              BF23BA6A0302
   \              5C8216ED2B1C
   \              CF8A92B479A7
   \   00000108   F0F207F3A1E2       DC32 4077384432, 1315562145, 1708848333, 101039829, 3509871135
   \              694ECDF4DA65
   \              D5BE05061F62
   \              34D1        
   \   0000011C   8AFEA6C49D53       DC32 3299278474, 875451293, 2733856160, 92987698, 2767645557, 193195065
   \              2E34A055F3A2
   \              32E18A0575EB
   \              F6A439EC830B
   \   00000134   AAEF6040069F       DC32 1080094634, 1584504582, 3178106961, 1042385657, 2531067453
   \              715E51106EBD
   \              F98A213E3D06
   \              DD96        
   \   00000148   AE053EDD46BD       DC32 3711829422, 1306967366, 2438237621, 1908694277, 67556463
   \              E64DB58D5491
   \              055DC4716FD4
   \              0604        
   \   0000015C   FF15506024FB       DC32 1615861247, 429456164, 3602770327, 2302690252, 1742315127
   \              981997E9BDD6
   \              CC434089779E
   \              D967        
   \   00000170   BD42E8B0888B       DC32 2968011453, 126454664, 3877198648, 2043211483, 2709260871
   \              8907385B19E7
   \              DBEEC879470A
   \              7CA1        
   \   00000184   E90F427CC91E       DC32 2084704233, 4169408201, 0, 159417987, 841739592, 504459436
   \              84F800000000
   \              8386800948ED
   \              2B32AC70111E
   \   0000019C   4E725A6CFBFF       DC32 1817866830, 4245618683, 260388950, 1034867998, 908933415
   \              0EFD5638850F
   \              1ED5AE3D2739
   \              2D36        
   \   000001B0   64D90F0A21A6       DC32 168810852, 1750902305, 2606453969, 607530554, 202008497
   \              5C68D1545B9B
   \              3A2E3624B167
   \              0A0C        
   \   000001C4   0FE75793D296       DC32 2472011535, 3035535058, 463180190, 2160117071, 1641816226
   \              EEB49E919B1B
   \              4FC5C080A220
   \              DC61        
   \   000001D8   694B775A161A       DC32 1517767529, 470948374, 3801332234, 3231722213, 1008918595
   \              121C0ABA93E2
   \              E52AA0C043E0
   \              223C        
   \   000001EC   1D171B120B0D       DC32 303765277, 235474187, 4069246893, 766945465, 337553864, 1475418501
   \              090EADC78BF2
   \              B9A8B62DC8A9
   \              1E148519F157
   \   00000204   4C0775AFBBDD       DC32 2943682380, 4003061179, 2743034109, 4144047775, 1551037884
   \              99EEFD607FA3
   \              9F2601F7BCF5
   \              725C        
   \   00000218   C53B6644347E       DC32 1147550661, 1543208500, 2336434550, 3408119516, 3069049960
   \              FB5B7629438B
   \              DCC623CB68FC
   \              EDB6        
   \   0000022C   63F1E4B8CADC       DC32 3102011747, 3610369226, 1113818384, 328671808, 2227573024
   \              31D710856342
   \              402297132011
   \              C684        
   \   00000240   7D244A85F83D       DC32 2236228733, 3535486456, 2935566865, 3341394285, 496906059
   \              BBD21132F9AE
   \              6DA129C74B2F
   \              9E1D        
   \   00000254   F330B2DCEC52       DC32 3702665459, 226906860, 2009195472, 733156972, 2842737049
   \              860DD0E3C177
   \              6C16B32B99B9
   \              70A9        
   \   00000268   FA4894112264       DC32 294930682, 1206477858, 2835123396, 2700099354, 1451044056
   \              E947C48CFCA8
   \              1A3FF0A0D82C
   \              7D56        
   \   0000027C   EF903322C74E       DC32 573804783, 2269728455, 3644379585, 2362090238, 2564033334
   \              4987C1D138D9
   \              FEA2CA8C360B
   \              D498        
   \   00000290   CF81F5A628DE       DC32 2801107407, 2776292904, 3669462566, 1068351396, 742039012
   \              7AA5268EB7DA
   \              A4BFAD3FE49D
   \              3A2C        
   \   000002A4   0D9278509BCC       DC32 1350078989, 1784663195, 1417561698, 4136440770, 2430122216
   \              5F6A62467E54
   \              C2138DF6E8B8
   \              D890        
   \   000002B8   5EF7392EF5AF       DC32 775550814, 2193862645, 2673705150, 1775276924, 1876241833
   \              C382BE805D9F
   \              7C93D069A92D
   \              D56F        
   \   000002CC   B31225CF3B99       DC32 3475313331, 3366754619, 270040487, 3902563182, 3678124923
   \              ACC8A77D1810
   \              6E639CE87BBB
   \              3BDB        
   \   000002E0   097826CDF418       DC32 3441850377, 1851332852, 3969562369, 2203032232, 3868552805
   \              596E01B79AEC
   \              A89A4F83656E
   \              95E6        
   \   000002F4   7EE6FFAA08CF       DC32 2868897406, 566021896, 4011190502, 3135740889, 1248802510
   \              BC21E6E815EF
   \              D99BE7BACE36
   \              6F4A        
   \   00000308   D4099FEAD67C       DC32 3936291284, 699432150, 832877231, 708780849, 3332740144, 899835584
   \              B029AFB2A431
   \              31233F2A3094
   \              A5C6C066A235
   \   00000320   37BC4E74A6CA       DC32 1951317047, 4236429990, 3767586992, 866637845, 4043610186
   \              82FCB0D090E0
   \              15D8A7334A98
   \              04F1        
   \   00000334   F7DAEC410E50       DC32 1106041591, 2144161806, 395441711, 1984812685, 1139781709
   \              CD7F2FF69117
   \              8DD64D764DB0
   \              EF43        
   \   00000348   544DAACCDF04       DC32 3433712980, 3835036895, 2664543715, 1282050075, 3240894392
   \              96E4E3B5D19E
   \              1B886A4CB81F
   \              2CC1        
   \   0000035C   7F51654604EA       DC32 1181045119, 2640243204, 25965917, 4203181171, 4211818798
   \              5E9D5D358C01
   \              737487FA2E41
   \              0BFB        
   \   00000370   5A1D67B352D2       DC32 3009879386, 2463879762, 3910161971, 1842759443, 2597806476
   \              DB92335610E9
   \              1347D66D8C61
   \              D79A        
   \   00000384   7A0CA1378E14       DC32 933301370, 1509430414, 3943906441, 3467192302, 3076639029
   \              F859893C13EB
   \              EE27A9CE35C9
   \              61B7        
   \   00000398   EDE51CE13CB1       DC32 3776767469, 2051518780, 2631065433, 1441952575, 404016761
   \              477A59DFD29C
   \              3F73F25579CE
   \              1418        
   \   000003AC   BF37C773EACD       DC32 1942435775, 1408749034, 1610459739, 3745345300, 2017778566
   \              F7535BAAFD5F
   \              146F3DDF86DB
   \              4478        
   \   000003C0   81F3AFCA3EC4       DC32 3400528769, 3110650942, 941896748, 3265478751, 371049330
   \              68B92C342438
   \              5F40A3C272C3
   \              1D16        
   \   000003D4   0C25E2BC8B49       DC32 3168937228, 675039627, 4279080257, 967311729, 135050206
   \              3C2841950DFF
   \              7101A839DEB3
   \              0C08        
   \   000003E8   9CE4B4D890C1       DC32 3635733660, 1683407248, 2076935265, 3576870512, 1215061108
   \              56646184CB7B
   \              70B632D5745C
   \              6C48        
   \   000003FC   4257B8D0           DC32 3501741890
    322              0x51f4a750U, 0x7e416553U, 0x1a17a4c3U, 0x3a275e96U,
    323              0x3bab6bcbU, 0x1f9d45f1U, 0xacfa58abU, 0x4be30393U,
    324              0x2030fa55U, 0xad766df6U, 0x88cc7691U, 0xf5024c25U,
    325              0x4fe5d7fcU, 0xc52acbd7U, 0x26354480U, 0xb562a38fU,
    326              0xdeb15a49U, 0x25ba1b67U, 0x45ea0e98U, 0x5dfec0e1U,
    327              0xc32f7502U, 0x814cf012U, 0x8d4697a3U, 0x6bd3f9c6U,
    328              0x038f5fe7U, 0x15929c95U, 0xbf6d7aebU, 0x955259daU,
    329              0xd4be832dU, 0x587421d3U, 0x49e06929U, 0x8ec9c844U,
    330              0x75c2896aU, 0xf48e7978U, 0x99583e6bU, 0x27b971ddU,
    331              0xbee14fb6U, 0xf088ad17U, 0xc920ac66U, 0x7dce3ab4U,
    332              0x63df4a18U, 0xe51a3182U, 0x97513360U, 0x62537f45U,
    333              0xb16477e0U, 0xbb6bae84U, 0xfe81a01cU, 0xf9082b94U,
    334              0x70486858U, 0x8f45fd19U, 0x94de6c87U, 0x527bf8b7U,
    335              0xab73d323U, 0x724b02e2U, 0xe31f8f57U, 0x6655ab2aU,
    336              0xb2eb2807U, 0x2fb5c203U, 0x86c57b9aU, 0xd33708a5U,
    337              0x302887f2U, 0x23bfa5b2U, 0x02036abaU, 0xed16825cU,
    338              0x8acf1c2bU, 0xa779b492U, 0xf307f2f0U, 0x4e69e2a1U,
    339              0x65daf4cdU, 0x0605bed5U, 0xd134621fU, 0xc4a6fe8aU,
    340              0x342e539dU, 0xa2f355a0U, 0x058ae132U, 0xa4f6eb75U,
    341              0x0b83ec39U, 0x4060efaaU, 0x5e719f06U, 0xbd6e1051U,
    342              0x3e218af9U, 0x96dd063dU, 0xdd3e05aeU, 0x4de6bd46U,
    343              0x91548db5U, 0x71c45d05U, 0x0406d46fU, 0x605015ffU,
    344              0x1998fb24U, 0xd6bde997U, 0x894043ccU, 0x67d99e77U,
    345              0xb0e842bdU, 0x07898b88U, 0xe7195b38U, 0x79c8eedbU,
    346              0xa17c0a47U, 0x7c420fe9U, 0xf8841ec9U, 0x00000000U,
    347              0x09808683U, 0x322bed48U, 0x1e1170acU, 0x6c5a724eU,
    348              0xfd0efffbU, 0x0f853856U, 0x3daed51eU, 0x362d3927U,
    349              0x0a0fd964U, 0x685ca621U, 0x9b5b54d1U, 0x24362e3aU,
    350              0x0c0a67b1U, 0x9357e70fU, 0xb4ee96d2U, 0x1b9b919eU,
    351              0x80c0c54fU, 0x61dc20a2U, 0x5a774b69U, 0x1c121a16U,
    352              0xe293ba0aU, 0xc0a02ae5U, 0x3c22e043U, 0x121b171dU,
    353              0x0e090d0bU, 0xf28bc7adU, 0x2db6a8b9U, 0x141ea9c8U,
    354              0x57f11985U, 0xaf75074cU, 0xee99ddbbU, 0xa37f60fdU,
    355              0xf701269fU, 0x5c72f5bcU, 0x44663bc5U, 0x5bfb7e34U,
    356              0x8b432976U, 0xcb23c6dcU, 0xb6edfc68U, 0xb8e4f163U,
    357              0xd731dccaU, 0x42638510U, 0x13972240U, 0x84c61120U,
    358              0x854a247dU, 0xd2bb3df8U, 0xaef93211U, 0xc729a16dU,
    359              0x1d9e2f4bU, 0xdcb230f3U, 0x0d8652ecU, 0x77c1e3d0U,
    360              0x2bb3166cU, 0xa970b999U, 0x119448faU, 0x47e96422U,
    361              0xa8fc8cc4U, 0xa0f03f1aU, 0x567d2cd8U, 0x223390efU,
    362              0x87494ec7U, 0xd938d1c1U, 0x8ccaa2feU, 0x98d40b36U,
    363              0xa6f581cfU, 0xa57ade28U, 0xdab78e26U, 0x3fadbfa4U,
    364              0x2c3a9de4U, 0x5078920dU, 0x6a5fcc9bU, 0x547e4662U,
    365              0xf68d13c2U, 0x90d8b8e8U, 0x2e39f75eU, 0x82c3aff5U,
    366              0x9f5d80beU, 0x69d0937cU, 0x6fd52da9U, 0xcf2512b3U,
    367              0xc8ac993bU, 0x10187da7U, 0xe89c636eU, 0xdb3bbb7bU,
    368              0xcd267809U, 0x6e5918f4U, 0xec9ab701U, 0x834f9aa8U,
    369              0xe6956e65U, 0xaaffe67eU, 0x21bccf08U, 0xef15e8e6U,
    370              0xbae79bd9U, 0x4a6f36ceU, 0xea9f09d4U, 0x29b07cd6U,
    371              0x31a4b2afU, 0x2a3f2331U, 0xc6a59430U, 0x35a266c0U,
    372              0x744ebc37U, 0xfc82caa6U, 0xe090d0b0U, 0x33a7d815U,
    373              0xf104984aU, 0x41ecdaf7U, 0x7fcd500eU, 0x1791f62fU,
    374              0x764dd68dU, 0x43efb04dU, 0xccaa4d54U, 0xe49604dfU,
    375              0x9ed1b5e3U, 0x4c6a881bU, 0xc12c1fb8U, 0x4665517fU,
    376              0x9d5eea04U, 0x018c355dU, 0xfa877473U, 0xfb0b412eU,
    377              0xb3671d5aU, 0x92dbd252U, 0xe9105633U, 0x6dd64713U,
    378              0x9ad7618cU, 0x37a10c7aU, 0x59f8148eU, 0xeb133c89U,
    379              0xcea927eeU, 0xb761c935U, 0xe11ce5edU, 0x7a47b13cU,
    380              0x9cd2df59U, 0x55f2733fU, 0x1814ce79U, 0x73c737bfU,
    381              0x53f7cdeaU, 0x5ffdaa5bU, 0xdf3d6f14U, 0x7844db86U,
    382              0xcaaff381U, 0xb968c43eU, 0x3824342cU, 0xc2a3405fU,
    383              0x161dc372U, 0xbce2250cU, 0x283c498bU, 0xff0d9541U,
    384              0x39a80171U, 0x080cb3deU, 0xd8b4e49cU, 0x6456c190U,
    385              0x7bcb8461U, 0xd532b670U, 0x486c5c74U, 0xd0b85742U,
    386          };

   \                                 In segment DATA_C, align 4, align-sorted
    387          static const u32 Td1[256] = {
   \                     Td1:
   \   00000000   A7F451506541       DC32 1347548327, 1400783205, 3273267108, 2520393566, 3409685355
   \              7E53A4171AC3
   \              5E273A966BAB
   \              3BCB        
   \   00000014   459D1FF158FA       DC32 4045380933, 2880240216, 2471224067, 1428173050, 4138563181
   \              ACAB03E34B93
   \              FA3020556D76
   \              ADF6        
   \   00000028   76CC88914C02       DC32 2441661558, 636813900, 4233094615, 3620022987, 2149987652
   \              F525D7E54FFC
   \              CB2AC5D74435
   \              2680        
   \   0000003C   A362B58F5AB1       DC32 2411029155, 1239331162, 1730525723, 2554718734, 3781033664
   \              DE491BBA2567
   \              0EEA4598C0FE
   \              5DE1        
   \   00000050   752FC302F04C       DC32 46346101, 310463728, 2743944855, 3328955385, 3875770207
   \              811297468DA3
   \              F9D36BC65F8F
   \              03E7        
   \   00000064   9C9215957A6D       DC32 2501218972, 3955191162, 3667219033, 768917123, 3545789473
   \              BFEB595295DA
   \              83BED42D2174
   \              58D3        
   \   00000078   69E04929C8C9       DC32 692707433, 1150208456, 1786102409, 2029293177, 1805211710
   \              8E4489C2756A
   \              798EF4783E58
   \              996B        
   \   0000008C   71B927DD4FE1       DC32 3710368113, 3065962831, 401639597, 1724457132, 3028143674
   \              BEB6AD88F017
   \              AC20C9663ACE
   \              7DB4        
   \   000000A0   4ADF6318311A       DC32 409198410, 2196052529, 1620529459, 1164071807, 3769721975
   \              E58233519760
   \              7F5362457764
   \              B1E0        
   \   000000B4   AE6BBB84A081       DC32 2226875310, 486441376, 2499348523, 1483753576, 428819965
   \              FE1C2B08F994
   \              68487058FD45
   \              8F19        
   \   000000C8   6CDE9487F87B       DC32 2274680428, 3075636216, 598438867, 3799141122, 1474502543
   \              52B7D373AB23
   \              024B72E28F1F
   \              E357        
   \   000000DC   AB55662A28EB       DC32 711349675, 129166120, 53458370, 2592523643, 2782082824, 4063242375
   \              B207C2B52F03
   \              7BC5869A0837
   \              D3A5872830F2
   \   000000F4   A5BF23B26A03       DC32 2988687269, 3120694122, 1559041666, 730517276, 2460449204
   \              02BA8216ED5C
   \              1CCF8A2BB479
   \              A792        
   \   00000108   F207F3F0E269       DC32 4042459122, 2706270690, 3446004468, 3573941694, 533804130
   \              4EA1F4DA65CD
   \              BE0506D56234
   \              D11F        
   \   0000011C   FEA6C48A532E       DC32 2328143614, 2637442643, 2695033685, 839224033, 1973745387
   \              349D55F3A2A0
   \              E18A0532EBF6
   \              A475        
   \   00000130   EC830B39EF60       DC32 957055980, 2856345839, 106852767, 1371368976, 4181598602
   \              40AA9F715E06
   \              106EBD518A21
   \              3EF9        
   \   00000144   06DD963D053E       DC32 1033297158, 2933734917, 1179510461, 3046200461, 91341917
   \              DDAEBDE64D46
   \              8D5491B55DC4
   \              7105        
   \   00000158   D406046F1550       DC32 1862534868, 4284502037, 605657339, 2547432937, 3431546947
   \              60FFFB981924
   \              E9BDD6974340
   \              89CC        
   \   0000016C   9ED9677742E8       DC32 2003294622, 3182487618, 2282195339, 954669403, 3682191598
   \              B0BD8B890788
   \              5B19E738EEC8
   \              79DB        
   \   00000180   0A7CA1470F42       DC32 1201765386, 3917234703, 3388507166, 0, 2198438022, 1211247597
   \              7CE91E84F8C9
   \              000000008680
   \              0983ED2B3248
   \   00000198   70111EAC725A       DC32 2887651696, 1315723890, 4227665663, 1443857720, 507358933
   \              6C4EFF0EFDFB
   \              38850F56D5AE
   \              3D1E        
   \   000001AC   392D3627D90F       DC32 657861945, 1678381017, 560487590, 3516619604, 975451694
   \              0A64A65C6821
   \              545B9BD12E36
   \              243A        
   \   000001C0   670A0CB1E757       DC32 2970356327, 261314535, 3535072918, 2652609425, 1333838021
   \              930F96EEB4D2
   \              919B1B9EC5C0
   \              804F        
   \   000001D4   20DC61A24B77       DC32 2724322336, 1767536459, 370938394, 182621114, 3854606378
   \              5A691A121C16
   \              BA93E20A2AA0
   \              C0E5        
   \   000001E8   E0223C43171B       DC32 1128014560, 487725847, 185469197, 2918353863, 3106780840
   \              121D0D090E0B
   \              C78BF2ADA8B6
   \              2DB9        
   \   000001FC   A91E14C819F1       DC32 3356761769, 2237133081, 1286567175, 3152976349, 4255350624
   \              57850775AF4C
   \              DD99EEBB607F
   \              A3FD        
   \   00000210   2601F79FF572       DC32 2683765030, 3160175349, 3309594171, 878443390, 1988838185
   \              5CBC3B6644C5
   \              7EFB5B342943
   \              8B76        
   \   00000224   C623CBDCFCED       DC32 3704300486, 1756818940, 1673061617, 3403100636, 272786309
   \              B668F1E4B863
   \              DC31D7CA8563
   \              4210        
   \   00000238   2297134011C6       DC32 1075025698, 545572369, 2105887268, 4174560061, 296679730
   \              8420244A857D
   \              3DBBD2F832F9
   \              AE11        
   \   0000024C   A129C76D2F9E       DC32 1841768865, 1260232239, 4091327024, 3960309330, 3497509347
   \              1D4B30B2DCF3
   \              52860DECE3C1
   \              77D0        
   \   00000260   16B32B6CB970       DC32 1814803222, 2578018489, 4195456072, 575138148, 3299409036
   \              A999489411FA
   \              64E947228CFC
   \              A8C4        
   \   00000274   3FF0A01A2C7D       DC32 446754879, 3629546796, 4011996048, 3347532110, 3252238545
   \              56D8903322EF
   \              4E4987C7D138
   \              D9C1        
   \   00000288   A2CA8CFE0BD4       DC32 4270639778, 915985419, 3483825537, 681933534, 651868046
   \              983681F5A6CF
   \              DE7AA5288EB7
   \              DA26        
   \   0000029C   BFAD3FA49D3A       DC32 2755636671, 3828103837, 223377554, 2607439820, 1649704518
   \              2CE49278500D
   \              CC5F6A9B467E
   \              5462        
   \   000002B0   138DF6C2B8D8       DC32 3270937875, 3901806776, 1580087799, 4118987695, 3198115200
   \              90E8F7392E5E
   \              AFC382F5805D
   \              9FBE        
   \   000002C4   93D0697C2DD5       DC32 2087309459, 2842678573, 3016697106, 1003007129, 2802849917
   \              6FA91225CFB3
   \              99ACC83B7D18
   \              10A7        
   \   000002D8   639CE86EBB3B       DC32 1860738147, 2077965243, 164439672, 4100872472, 32283319
   \              DB7B7826CD09
   \              18596EF4B79A
   \              EC01        
   \   000002EC   9A4F83A86E95       DC32 2827177882, 1709610350, 2125135846, 136428751, 3874428392
   \              E665E6FFAA7E
   \              CFBC2108E815
   \              EFE6        
   \   00000300   9BE7BAD9366F       DC32 3652904859, 3460984630, 3572145929, 3593056380, 2939266226
   \              4ACE099FEAD4
   \              7CB029D6B2A4
   \              31AF        
   \   00000314   233F2A3194A5       DC32 824852259, 818324884, 3224740454, 930369212, 2801566410
   \              C63066A235C0
   \              BC4E7437CA82
   \              FCA6        
   \   00000328   D090E0B0D8A7       DC32 2967507152, 355706840, 1257309336, 4148292826, 243256656
   \              33159804F14A
   \              DAEC41F750CD
   \              7F0E        
   \   0000033C   F691172FD64D       DC32 790073846, 2373340630, 1296297904, 1422699085, 3756299780
   \              768DB0EF434D
   \              4DAACC540496
   \              E4DF        
   \   00000350   B5D19EE3886A       DC32 3818836405, 457992840, 3099667487, 2135319889, 77422314
   \              4C1B1F2CC1B8
   \              5165467FEA5E
   \              9D04        
   \   00000364   358C015D7487       DC32 1560382517, 1945798516, 788204353, 1521706781, 1385356242
   \              FA73410BFB2E
   \              1D67B35AD2DB
   \              9252        
   \   00000378   5610E93347D6       DC32 870912086, 325965383, 2358957921, 2050466060, 2388260884
   \              6D1361D79A8C
   \              0CA1377A14F8
   \              598E        
   \   0000038C   3C13EB8927A9       DC32 2313884476, 4006521127, 901210569, 3990953189, 1014646705
   \              CEEEC961B735
   \              E51CE1EDB147
   \              7A3C        
   \   000003A0   DFD29C5973F2       DC32 1503449823, 1062597235, 2031621326, 3212035895, 3931371469
   \              553FCE141879
   \              37C773BFCDF7
   \              53EA        
   \   000003B4   AAFD5F5B6F3D       DC32 1533017514, 350174575, 2256028891, 2177544179, 1052338372
   \              DF14DB447886
   \              F3AFCA81C468
   \              B93E        
   \   000003C8   3424382C40A3       DC32 741876788, 1606591296, 1914052035, 213705253, 2334669897
   \              C25FC31D1672
   \              25E2BC0C493C
   \              288B        
   \   000003DC   950DFF4101A8       DC32 1107234197, 1899603969, 3725069491, 2631447780, 2422494913
   \              3971B30C08DE
   \              E4B4D89CC156
   \              6490        
   \   000003F0   84CB7B61B632       DC32 1635502980, 1893020342, 1950903388, 1120974935
   \              D5705C6C4874
   \              57B8D042    
    388              0x5051f4a7U, 0x537e4165U, 0xc31a17a4U, 0x963a275eU,
    389              0xcb3bab6bU, 0xf11f9d45U, 0xabacfa58U, 0x934be303U,
    390              0x552030faU, 0xf6ad766dU, 0x9188cc76U, 0x25f5024cU,
    391              0xfc4fe5d7U, 0xd7c52acbU, 0x80263544U, 0x8fb562a3U,
    392              0x49deb15aU, 0x6725ba1bU, 0x9845ea0eU, 0xe15dfec0U,
    393              0x02c32f75U, 0x12814cf0U, 0xa38d4697U, 0xc66bd3f9U,
    394              0xe7038f5fU, 0x9515929cU, 0xebbf6d7aU, 0xda955259U,
    395              0x2dd4be83U, 0xd3587421U, 0x2949e069U, 0x448ec9c8U,
    396              0x6a75c289U, 0x78f48e79U, 0x6b99583eU, 0xdd27b971U,
    397              0xb6bee14fU, 0x17f088adU, 0x66c920acU, 0xb47dce3aU,
    398              0x1863df4aU, 0x82e51a31U, 0x60975133U, 0x4562537fU,
    399              0xe0b16477U, 0x84bb6baeU, 0x1cfe81a0U, 0x94f9082bU,
    400              0x58704868U, 0x198f45fdU, 0x8794de6cU, 0xb7527bf8U,
    401              0x23ab73d3U, 0xe2724b02U, 0x57e31f8fU, 0x2a6655abU,
    402              0x07b2eb28U, 0x032fb5c2U, 0x9a86c57bU, 0xa5d33708U,
    403              0xf2302887U, 0xb223bfa5U, 0xba02036aU, 0x5ced1682U,
    404              0x2b8acf1cU, 0x92a779b4U, 0xf0f307f2U, 0xa14e69e2U,
    405              0xcd65daf4U, 0xd50605beU, 0x1fd13462U, 0x8ac4a6feU,
    406              0x9d342e53U, 0xa0a2f355U, 0x32058ae1U, 0x75a4f6ebU,
    407              0x390b83ecU, 0xaa4060efU, 0x065e719fU, 0x51bd6e10U,
    408              0xf93e218aU, 0x3d96dd06U, 0xaedd3e05U, 0x464de6bdU,
    409              0xb591548dU, 0x0571c45dU, 0x6f0406d4U, 0xff605015U,
    410              0x241998fbU, 0x97d6bde9U, 0xcc894043U, 0x7767d99eU,
    411              0xbdb0e842U, 0x8807898bU, 0x38e7195bU, 0xdb79c8eeU,
    412              0x47a17c0aU, 0xe97c420fU, 0xc9f8841eU, 0x00000000U,
    413              0x83098086U, 0x48322bedU, 0xac1e1170U, 0x4e6c5a72U,
    414              0xfbfd0effU, 0x560f8538U, 0x1e3daed5U, 0x27362d39U,
    415              0x640a0fd9U, 0x21685ca6U, 0xd19b5b54U, 0x3a24362eU,
    416              0xb10c0a67U, 0x0f9357e7U, 0xd2b4ee96U, 0x9e1b9b91U,
    417              0x4f80c0c5U, 0xa261dc20U, 0x695a774bU, 0x161c121aU,
    418              0x0ae293baU, 0xe5c0a02aU, 0x433c22e0U, 0x1d121b17U,
    419              0x0b0e090dU, 0xadf28bc7U, 0xb92db6a8U, 0xc8141ea9U,
    420              0x8557f119U, 0x4caf7507U, 0xbbee99ddU, 0xfda37f60U,
    421              0x9ff70126U, 0xbc5c72f5U, 0xc544663bU, 0x345bfb7eU,
    422              0x768b4329U, 0xdccb23c6U, 0x68b6edfcU, 0x63b8e4f1U,
    423              0xcad731dcU, 0x10426385U, 0x40139722U, 0x2084c611U,
    424              0x7d854a24U, 0xf8d2bb3dU, 0x11aef932U, 0x6dc729a1U,
    425              0x4b1d9e2fU, 0xf3dcb230U, 0xec0d8652U, 0xd077c1e3U,
    426              0x6c2bb316U, 0x99a970b9U, 0xfa119448U, 0x2247e964U,
    427              0xc4a8fc8cU, 0x1aa0f03fU, 0xd8567d2cU, 0xef223390U,
    428              0xc787494eU, 0xc1d938d1U, 0xfe8ccaa2U, 0x3698d40bU,
    429              0xcfa6f581U, 0x28a57adeU, 0x26dab78eU, 0xa43fadbfU,
    430              0xe42c3a9dU, 0x0d507892U, 0x9b6a5fccU, 0x62547e46U,
    431              0xc2f68d13U, 0xe890d8b8U, 0x5e2e39f7U, 0xf582c3afU,
    432              0xbe9f5d80U, 0x7c69d093U, 0xa96fd52dU, 0xb3cf2512U,
    433              0x3bc8ac99U, 0xa710187dU, 0x6ee89c63U, 0x7bdb3bbbU,
    434              0x09cd2678U, 0xf46e5918U, 0x01ec9ab7U, 0xa8834f9aU,
    435              0x65e6956eU, 0x7eaaffe6U, 0x0821bccfU, 0xe6ef15e8U,
    436              0xd9bae79bU, 0xce4a6f36U, 0xd4ea9f09U, 0xd629b07cU,
    437              0xaf31a4b2U, 0x312a3f23U, 0x30c6a594U, 0xc035a266U,
    438              0x37744ebcU, 0xa6fc82caU, 0xb0e090d0U, 0x1533a7d8U,
    439              0x4af10498U, 0xf741ecdaU, 0x0e7fcd50U, 0x2f1791f6U,
    440              0x8d764dd6U, 0x4d43efb0U, 0x54ccaa4dU, 0xdfe49604U,
    441              0xe39ed1b5U, 0x1b4c6a88U, 0xb8c12c1fU, 0x7f466551U,
    442              0x049d5eeaU, 0x5d018c35U, 0x73fa8774U, 0x2efb0b41U,
    443              0x5ab3671dU, 0x5292dbd2U, 0x33e91056U, 0x136dd647U,
    444              0x8c9ad761U, 0x7a37a10cU, 0x8e59f814U, 0x89eb133cU,
    445              0xeecea927U, 0x35b761c9U, 0xede11ce5U, 0x3c7a47b1U,
    446              0x599cd2dfU, 0x3f55f273U, 0x791814ceU, 0xbf73c737U,
    447              0xea53f7cdU, 0x5b5ffdaaU, 0x14df3d6fU, 0x867844dbU,
    448              0x81caaff3U, 0x3eb968c4U, 0x2c382434U, 0x5fc2a340U,
    449              0x72161dc3U, 0x0cbce225U, 0x8b283c49U, 0x41ff0d95U,
    450              0x7139a801U, 0xde080cb3U, 0x9cd8b4e4U, 0x906456c1U,
    451              0x617bcb84U, 0x70d532b6U, 0x74486c5cU, 0x42d0b857U,
    452          };

   \                                 In segment DATA_C, align 4, align-sorted
    453          static const u32 Td2[256] = {
   \                     Td2:
   \   00000000   F45150A7417E       DC32 2807058932, 1699970625, 2764249623, 1586903591, 1808481195
   \              5365171AC3A4
   \              273A965EAB3B
   \              CB6B        
   \   00000014   9D1FF145FAAC       DC32 1173430173, 1487645946, 59984867, 4199882800, 1844882806
   \              AB58E34B9303
   \              302055FA76AD
   \              F66D        
   \   00000028   CC88917602F5       DC32 1989249228, 1277555970, 3623636965, 3419915562, 1149249077
   \              254CE54FFCD7
   \              2AC5D7CB3526
   \              8044        
   \   0000003C   62B58FA3B1DE       DC32 2744104290, 1514790577, 459744698, 244860394, 3235995134
   \              495ABA25671B
   \              EA45980EFE5D
   \              E1C0        
   \   00000050   2FC302754C81       DC32 1963115311, 4027744588, 2544078150, 4190530515, 1608975247
   \              12F0468DA397
   \              D36BC6F98F03
   \              E75F        
   \   00000064   9215959C6DBF       DC32 2627016082, 2062270317, 1507497298, 2200818878, 567498868
   \              EB7A5295DA59
   \              BED42D837458
   \              D321        
   \   00000078   E0492969C98E       DC32 1764313568, 3359936201, 2305455554, 2037970062, 1047239000
   \              44C8C2756A89
   \              8EF478795899
   \              6B3E        
   \   0000008C   B927DD71E1BE       DC32 1910319033, 1337376481, 2904027272, 2892417312, 984907214
   \              B64F88F017AD
   \              20C966ACCE7D
   \              B43A        
   \   000000A0   DF63184A1AE5       DC32 1243112415, 830661914, 861968209, 2135253587, 2011214180
   \              823151976033
   \              5362457F64B1
   \              E077        
   \   000000B4   6BBB84AE81FE       DC32 2927934315, 2686254721, 731183368, 1750626376, 4246310725
   \              1CA008F9942B
   \              48705868458F
   \              19FD        
   \   000000C8   DE94876C7B52       DC32 1820824798, 4172763771, 3542330227, 48394827, 2404901663
   \              B7F873AB23D3
   \              4B72E2021FE3
   \              578F        
   \   000000DC   55662AABEBB2       DC32 2871682645, 671593195, 3254988725, 2073724613, 145085239
   \              0728B52F03C2
   \              C5869A7B37D3
   \              A508        
   \   000000F0   2830F287BF23       DC32 2280796200, 2779915199, 1790575107, 2187128086, 472615631
   \              B2A50302BA6A
   \              16ED5C82CF8A
   \              2B1C        
   \   00000104   79A792B407F3       DC32 3029510009, 4075877127, 3802222185, 4107101658, 3201631749
   \              F0F2694EA1E2
   \              DA65CDF40506
   \              D5BE        
   \   00000118   34D11F62A6C4       DC32 1646252340, 4270507174, 1402811438, 1436590835, 3778151818
   \              8AFE2E349D53
   \              F3A2A0558A05
   \              32E1        
   \   0000012C   F6A475EB830B       DC32 3950355702, 3963161475, 4020912224, 2667994737, 273792366
   \              39EC6040AAEF
   \              715E069F6EBD
   \              5110        
   \   00000140   213EF98ADD96       DC32 2331590177, 104699613, 95345982, 3175501286, 2377486676
   \              3D063EDDAE05
   \              E64D46BD5491
   \              B58D        
   \   00000154   C471055D0604       DC32 1560637892, 3564045318, 369057872, 4213447064, 3919042237
   \              6FD45060FF15
   \              981924FBBDD6
   \              97E9        
   \   00000168   4089CC43D967       DC32 1137477952, 2658625497, 1119727848, 2340947849, 1530455833
   \              779EE8B0BD42
   \              8907888B19E7
   \              385B        
   \   0000017C   C879DBEE7CA1       DC32 4007360968, 172466556, 266959938, 516552836, 0, 2256734592
   \              470A427CE90F
   \              84F8C91E0000
   \              000080098386
   \   00000194   2B3248ED111E       DC32 3980931627, 1890328081, 1917742170, 4294704398, 945164165
   \              AC705A6C4E72
   \              0EFDFBFF850F
   \              5638        
   \   000001A8   AE3D1ED52D36       DC32 3575528878, 958871085, 3647212047, 2787207260, 1423022939
   \              27390F0A64D9
   \              5C6821A65B9B
   \              D154        
   \   000001BC   36243A2E0A0C       DC32 775562294, 1739656202, 3876557655, 2530391278, 2443058075
   \              B16757930FE7
   \              EEB4D2969B1B
   \              9E91        
   \   000001D0   C0804FC5DC61       DC32 3310321856, 547512796, 1265195639, 437656594, 3121275539
   \              A220775A694B
   \              121C161A93E2
   \              0ABA        
   \   000001E4   A0C0E52A223C       DC32 719700128, 3762502690, 387781147, 218828297, 3350065803
   \              43E01B121D17
   \              090E0B0D8BF2
   \              ADC7        
   \   000001F8   B62DB9A81E14       DC32 2830708150, 2848461854, 428169201, 122466165, 3720081049
   \              C8A9F1578519
   \              75AF4C0799EE
   \              BBDD        
   \   0000020C   7FA3FD6001F7       DC32 1627235199, 648017665, 4122762354, 1002783846, 2117360635
   \              9F26725CBCF5
   \              6644C53BFB5B
   \              347E        
   \   00000220   438B762923CB       DC32 695634755, 3336358691, 4234721005, 4049844452, 3704280881
   \              DCC6EDB668FC
   \              E4B863F131D7
   \              CADC        
   \   00000234   634210859713       DC32 2232435299, 574624663, 287343814, 612205898, 1039717051, 840019705
   \              4022C6842011
   \              4A857D24BBD2
   \              F83DF9AE1132
   \   0000024C   29C76DA19E1D       DC32 2708326185, 793451934, 821288114, 1391201670, 3822090177
   \              4B2FB2DCF330
   \              860DEC52C177
   \              D0E3        
   \   00000260   B32B6C1670A9       DC32 376187827, 3113855344, 1224348052, 1679968233, 2361698556
   \              99B99411FA48
   \              E9472264FCA8
   \              C48C        
   \   00000274   F0A01A3F7D56       DC32 1058709744, 752375421, 2431590963, 1321699145, 3519142200
   \              D82C3322EF90
   \              4987C74E38D9
   \              C1D1        
   \   00000288   CA8CFEA2D498       DC32 2734591178, 188127444, 2177869557, 3727205754, 2384911031
   \              360BF5A6CF81
   \              7AA528DEB7DA
   \              268E        
   \   0000029C   AD3FA4BF3A2C       DC32 3215212461, 2648976442, 2450346104, 3432737375, 1180849278
   \              E49D78500D92
   \              5F6A9BCC7E54
   \              6246        
   \   000002B0   8DF6C213D890       DC32 331544205, 3102249176, 4150144569, 2952102595, 2159976285
   \              E8B8392E5EF7
   \              C382F5AF5D9F
   \              BE80        
   \   000002C4   D0697C93D56F       DC32 2474404304, 766078933, 313773861, 2570832044, 2108100632
   \              A92D25CFB312
   \              ACC83B991810
   \              A77D        
   \   000002D8   9CE86E633BDB       DC32 1668212892, 3145456443, 2013908262, 418672217, 3070356634
   \              7BBB26CD0978
   \              596EF4189AEC
   \              01B7        
   \   000002EC   4F83A89A95E6       DC32 2594734927, 1852171925, 3867060991, 3473416636, 3907448597
   \              656EFFAA7EE6
   \              BC2108CF15EF
   \              E6E8        
   \   00000300   E7BAD99B6F4A       DC32 2614737639, 919489135, 164948639, 2094410160, 2997825956
   \              CE369FEAD409
   \              B029D67CA431
   \              AFB2        
   \   00000314   3F2A3123A5C6       DC32 590424639, 2486224549, 1723872674, 3157750862, 3399941250
   \              3094A235C066
   \              4E7437BC82FC
   \              A6CA        
   \   00000328   90E0B0D0A733       DC32 3501252752, 3625268135, 2555048196, 3673637356, 1343127501
   \              15D804F14A98
   \              EC41F7DACD7F
   \              0E50        
   \   0000033C   91172FF64D76       DC32 4130281361, 3599595085, 2957853679, 1297403050, 81781910
   \              8DD6EF434DB0
   \              AACC544D96E4
   \              DF04        
   \   00000350   D19EE3B56A4C       DC32 3051593425, 2283490410, 532201772, 1367295589, 3926170974
   \              1B882CC1B81F
   \              65467F515E9D
   \              04EA        
   \   00000364   8C015D3587FA       DC32 895287692, 1953757831, 1093597963, 492483431, 3528626907
   \              73740BFB2E41
   \              67B35A1DDB92
   \              52D2        
   \   00000378   10E93356D66D       DC32 1446242576, 1192455638, 1636604631, 209336225, 344873464
   \              1347D79A8C61
   \              A1377A0CF859
   \              8E14        
   \   0000038C   13EB893CA9CE       DC32 1015671571, 669961897, 3375740769, 3857572124, 2973530695
   \              EE2761B735C9
   \              1CE1EDE5477A
   \              3CB1        
   \   000003A0   D29C59DFF255       DC32 3747192018, 1933530610, 3464042516, 935293895, 3454686199
   \              3F73141879CE
   \              C773BF37F753
   \              EACD        
   \   000003B4   FD5F5BAA3DDF       DC32 2858115069, 1863638845, 3683022916, 4085369519, 3292445032
   \              146F447886DB
   \              AFCA81F368B9
   \              3EC4        
   \   000003C8   24382C34A3C2       DC32 875313188, 1080017571, 3279033885, 621591778, 1233856572
   \              5F401D1672C3
   \              E2BC0C253C28
   \              8B49        
   \   000003DC   0DFF4195A839       DC32 2504130317, 24197544, 3017672716, 3835484340, 3247465558
   \              71010C08DEB3
   \              B4D89CE45664
   \              90C1        
   \   000003F0   CB7B618432D5       DC32 2220981195, 3060847922, 1551124588, 1463996600
   \              70B66C48745C
   \              B8D04257    
    454              0xa75051f4U, 0x65537e41U, 0xa4c31a17U, 0x5e963a27U,
    455              0x6bcb3babU, 0x45f11f9dU, 0x58abacfaU, 0x03934be3U,
    456              0xfa552030U, 0x6df6ad76U, 0x769188ccU, 0x4c25f502U,
    457              0xd7fc4fe5U, 0xcbd7c52aU, 0x44802635U, 0xa38fb562U,
    458              0x5a49deb1U, 0x1b6725baU, 0x0e9845eaU, 0xc0e15dfeU,
    459              0x7502c32fU, 0xf012814cU, 0x97a38d46U, 0xf9c66bd3U,
    460              0x5fe7038fU, 0x9c951592U, 0x7aebbf6dU, 0x59da9552U,
    461              0x832dd4beU, 0x21d35874U, 0x692949e0U, 0xc8448ec9U,
    462              0x896a75c2U, 0x7978f48eU, 0x3e6b9958U, 0x71dd27b9U,
    463              0x4fb6bee1U, 0xad17f088U, 0xac66c920U, 0x3ab47dceU,
    464              0x4a1863dfU, 0x3182e51aU, 0x33609751U, 0x7f456253U,
    465              0x77e0b164U, 0xae84bb6bU, 0xa01cfe81U, 0x2b94f908U,
    466              0x68587048U, 0xfd198f45U, 0x6c8794deU, 0xf8b7527bU,
    467              0xd323ab73U, 0x02e2724bU, 0x8f57e31fU, 0xab2a6655U,
    468              0x2807b2ebU, 0xc2032fb5U, 0x7b9a86c5U, 0x08a5d337U,
    469              0x87f23028U, 0xa5b223bfU, 0x6aba0203U, 0x825ced16U,
    470              0x1c2b8acfU, 0xb492a779U, 0xf2f0f307U, 0xe2a14e69U,
    471              0xf4cd65daU, 0xbed50605U, 0x621fd134U, 0xfe8ac4a6U,
    472              0x539d342eU, 0x55a0a2f3U, 0xe132058aU, 0xeb75a4f6U,
    473              0xec390b83U, 0xefaa4060U, 0x9f065e71U, 0x1051bd6eU,
    474              0x8af93e21U, 0x063d96ddU, 0x05aedd3eU, 0xbd464de6U,
    475              0x8db59154U, 0x5d0571c4U, 0xd46f0406U, 0x15ff6050U,
    476              0xfb241998U, 0xe997d6bdU, 0x43cc8940U, 0x9e7767d9U,
    477              0x42bdb0e8U, 0x8b880789U, 0x5b38e719U, 0xeedb79c8U,
    478              0x0a47a17cU, 0x0fe97c42U, 0x1ec9f884U, 0x00000000U,
    479              0x86830980U, 0xed48322bU, 0x70ac1e11U, 0x724e6c5aU,
    480              0xfffbfd0eU, 0x38560f85U, 0xd51e3daeU, 0x3927362dU,
    481              0xd9640a0fU, 0xa621685cU, 0x54d19b5bU, 0x2e3a2436U,
    482              0x67b10c0aU, 0xe70f9357U, 0x96d2b4eeU, 0x919e1b9bU,
    483              0xc54f80c0U, 0x20a261dcU, 0x4b695a77U, 0x1a161c12U,
    484              0xba0ae293U, 0x2ae5c0a0U, 0xe0433c22U, 0x171d121bU,
    485              0x0d0b0e09U, 0xc7adf28bU, 0xa8b92db6U, 0xa9c8141eU,
    486              0x198557f1U, 0x074caf75U, 0xddbbee99U, 0x60fda37fU,
    487              0x269ff701U, 0xf5bc5c72U, 0x3bc54466U, 0x7e345bfbU,
    488              0x29768b43U, 0xc6dccb23U, 0xfc68b6edU, 0xf163b8e4U,
    489              0xdccad731U, 0x85104263U, 0x22401397U, 0x112084c6U,
    490              0x247d854aU, 0x3df8d2bbU, 0x3211aef9U, 0xa16dc729U,
    491              0x2f4b1d9eU, 0x30f3dcb2U, 0x52ec0d86U, 0xe3d077c1U,
    492              0x166c2bb3U, 0xb999a970U, 0x48fa1194U, 0x642247e9U,
    493              0x8cc4a8fcU, 0x3f1aa0f0U, 0x2cd8567dU, 0x90ef2233U,
    494              0x4ec78749U, 0xd1c1d938U, 0xa2fe8ccaU, 0x0b3698d4U,
    495              0x81cfa6f5U, 0xde28a57aU, 0x8e26dab7U, 0xbfa43fadU,
    496              0x9de42c3aU, 0x920d5078U, 0xcc9b6a5fU, 0x4662547eU,
    497              0x13c2f68dU, 0xb8e890d8U, 0xf75e2e39U, 0xaff582c3U,
    498              0x80be9f5dU, 0x937c69d0U, 0x2da96fd5U, 0x12b3cf25U,
    499              0x993bc8acU, 0x7da71018U, 0x636ee89cU, 0xbb7bdb3bU,
    500              0x7809cd26U, 0x18f46e59U, 0xb701ec9aU, 0x9aa8834fU,
    501              0x6e65e695U, 0xe67eaaffU, 0xcf0821bcU, 0xe8e6ef15U,
    502              0x9bd9bae7U, 0x36ce4a6fU, 0x09d4ea9fU, 0x7cd629b0U,
    503              0xb2af31a4U, 0x23312a3fU, 0x9430c6a5U, 0x66c035a2U,
    504              0xbc37744eU, 0xcaa6fc82U, 0xd0b0e090U, 0xd81533a7U,
    505              0x984af104U, 0xdaf741ecU, 0x500e7fcdU, 0xf62f1791U,
    506              0xd68d764dU, 0xb04d43efU, 0x4d54ccaaU, 0x04dfe496U,
    507              0xb5e39ed1U, 0x881b4c6aU, 0x1fb8c12cU, 0x517f4665U,
    508              0xea049d5eU, 0x355d018cU, 0x7473fa87U, 0x412efb0bU,
    509              0x1d5ab367U, 0xd25292dbU, 0x5633e910U, 0x47136dd6U,
    510              0x618c9ad7U, 0x0c7a37a1U, 0x148e59f8U, 0x3c89eb13U,
    511              0x27eecea9U, 0xc935b761U, 0xe5ede11cU, 0xb13c7a47U,
    512              0xdf599cd2U, 0x733f55f2U, 0xce791814U, 0x37bf73c7U,
    513              0xcdea53f7U, 0xaa5b5ffdU, 0x6f14df3dU, 0xdb867844U,
    514              0xf381caafU, 0xc43eb968U, 0x342c3824U, 0x405fc2a3U,
    515              0xc372161dU, 0x250cbce2U, 0x498b283cU, 0x9541ff0dU,
    516              0x017139a8U, 0xb3de080cU, 0xe49cd8b4U, 0xc1906456U,
    517              0x84617bcbU, 0xb670d532U, 0x5c74486cU, 0x5742d0b8U,
    518          };

   \                                 In segment DATA_C, align 4, align-sorted
    519          static const u32 Td3[256] = {
   \                     Td3:
   \   00000000   5150A7F47E53       DC32 4104605777, 1097159550, 396673818, 660510266, 2875968315
   \              65411AC3A417
   \              3A965E273BCB
   \              6BAB        
   \   00000014   1FF1459DACAB       DC32 2638606623, 4200115116, 3808662347, 821712160, 1986918061
   \              58FA4B9303E3
   \              2055FA30ADF6
   \              6D76        
   \   00000028   889176CCF525       DC32 3430322568, 38544885, 3856137295, 718002117, 893681702, 1654886325
   \              4C024FFCD7E5
   \              C5D7CB2A2680
   \              4435B58FA362
   \   00000040   DE495AB12567       DC32 2975484382, 3122358053, 3926825029, 4274053469, 796197571
   \              1BBA45980EEA
   \              5DE1C0FEC302
   \              752F        
   \   00000054   8112F04C8DA3       DC32 1290801793, 1184342925, 3556361835, 2405426947, 2459735317
   \              97466BC6F9D3
   \              03E75F8F1595
   \              9C92        
   \   00000068   BFEB7A6D95DA       DC32 1836772287, 1381620373, 3196267988, 1948373848, 3764988233
   \              5952D42D83BE
   \              58D321744929
   \              69E0        
   \   0000007C   8E44C8C9756A       DC32 3385345166, 3263785589, 2390325492, 1480485785, 3111247143
   \              89C2F478798E
   \              996B3E5827DD
   \              71B9        
   \   00000090   BEB64FE1F017       DC32 3780097726, 2293045232, 548169417, 3459953789, 3746175075
   \              AD88C966AC20
   \              7DB43ACE6318
   \              4ADF        
   \   000000A4   E582311A9760       DC32 439452389, 1362321559, 1400849762, 1685577905, 1806599355
   \              335162457F53
   \              B1E07764BB84
   \              AE6B        
   \   000000B8   FE1CA081F994       DC32 2174754046, 137073913, 1214797936, 1174215055, 3731654548
   \              2B0870586848
   \              8F19FD459487
   \              6CDE        
   \   000000CC   52B7F87BAB23       DC32 2079897426, 1943217067, 1258480242, 529487843, 1437280870
   \              D37372E2024B
   \              E3578F1F662A
   \              AB55        
   \   000000E0   B20728EB2F03       DC32 3945269170, 3049390895, 3313212038, 923313619, 679998000
   \              C2B5869A7BC5
   \              D3A5083730F2
   \              8728        
   \   000000F4   23B2A5BF02BA       DC32 3215307299, 57326082, 377642221, 3474729866, 2041877159, 133361907
   \              6A03ED5C8216
   \              8A2B1CCFA792
   \              B479F3F0F207
   \   0000010C   4EA1E26965CD       DC32 1776460110, 3673476453, 96392454, 878845905, 2801699524, 777231668
   \              F4DA06D5BE05
   \              D11F6234C48A
   \              FEA6349D532E
   \   00000124   A2A055F30532       DC32 4082475170, 2330014213, 4142626212, 2213296395, 1626319424
   \              E18AA475EBF6
   \              0B39EC8340AA
   \              EF60        
   \   00000138   5E069F71BD51       DC32 1906247262, 1846563261, 562755902, 3708173718, 1040559837
   \              106E3EF98A21
   \              963D06DDDDAE
   \              053E        
   \   0000014C   4D46BDE691B5       DC32 3871163981, 1418573201, 3294430577, 114585348, 1343618912
   \              8D5471055DC4
   \              046FD40660FF
   \              1550        
   \   00000160   1924FB98D697       DC32 2566595609, 3186202582, 1078185097, 3651041127, 3896688048
   \              E9BD89CC4340
   \              67779ED9B0BD
   \              42E8        
   \   00000174   07888B89E738       DC32 2307622919, 425408743, 3371096953, 2081048481, 1108339068
   \              5B1979DBEEC8
   \              A1470A7C7CE9
   \              0F42        
   \   00000188   F8C91E840000       DC32 2216610296, 0, 2156299017, 736970802, 292596766, 1517440620
   \              000009838680
   \              3248ED2B1EAC
   \              70116C4E725A
   \   000001A0   FDFBFF0E0F56       DC32 251657213, 2235061775, 2933202493, 758720310, 265905162
   \              38853D1ED5AE
   \              3627392D0A64
   \              D90F        
   \   000001B4   6821A65C9BD1       DC32 1554391400, 1532285339, 908999204, 174567692, 1474760595
   \              545B243A2E36
   \              0CB1670A930F
   \              E757        
   \   000001C8   B4D296EE1B9E       DC32 4002861748, 2610011675, 3234156416, 3693126241, 2001430874
   \              919B804FC5C0
   \              61A220DC5A69
   \              4B77        
   \   000001DC   1C161A12E20A       DC32 303699484, 2478443234, 2687165888, 585122620, 454499602, 151849742
   \              BA93C0E52AA0
   \              3C43E022121D
   \              171B0E0B0D09
   \   000001F4   F2ADC78B2DB9       DC32 2345119218, 3064510765, 514443284, 4044981591, 1963412655
   \              A8B614C8A91E
   \              578519F1AF4C
   \              0775        
   \   00000208   EEBBDD99A3FD       DC32 2581445614, 2137062819, 19308535, 1928707164, 1715193156
   \              607FF79F2601
   \              5CBCF57244C5
   \              3B66        
   \   0000021C   5B347EFB8B76       DC32 4219352155, 1126790795, 600235211, 3992742070, 3841024952
   \              2943CBDCC623
   \              B668FCEDB863
   \              F1E4        
   \   00000230   D7CADC314210       DC32 836553431, 1669664834, 2535604243, 3323011204, 1243905413
   \              856313402297
   \              842011C6857D
   \              244A        
   \   00000244   D2F83DBBAE11       DC32 3141400786, 4180808110, 698445255, 2653899549, 2989552604
   \              32F9C76DA129
   \              1D4B2F9EDCF3
   \              30B2        
   \   00000258   0DEC528677D0       DC32 2253581325, 3252932727, 3004591147, 1891211689, 2487810577
   \              E3C12B6C16B3
   \              A999B97011FA
   \              4894        
   \   0000026C   472264E9A8C4       DC32 3915653703, 4237083816, 4030667424, 2100090966, 865136418
   \              8CFCA01A3FF0
   \              56D82C7D22EF
   \              9033        
   \   00000280   87C74E49D9C1       DC32 1229899655, 953270745, 3399679628, 3557504664, 4118925222
   \              D1388CFEA2CA
   \              98360BD4A6CF
   \              81F5        
   \   00000294   A528DE7ADA26       DC32 2061379749, 3079546586, 2915017791, 983426092, 2022837584
   \              8EB73FA4BFAD
   \              2CE49D3A500D
   \              9278        
   \   000002A8   6A9BCC5F5462       DC32 1607244650, 2118541908, 2366882550, 3635996816, 972512814
   \              467EF6C2138D
   \              90E8B8D82E5E
   \              F739        
   \   000002BC   82F5AFC39FBE       DC32 3283088770, 1568718495, 3499326569, 3576539503, 621982671
   \              805D697C93D0
   \              6FA92DD5CFB3
   \              1225        
   \   000002D0   C83B99AC10A7       DC32 2895723464, 410887952, 2623762152, 1002142683, 645401037
   \              7D18E86E639C
   \              DB7BBB3BCD09
   \              7826        
   \   000002E4   6EF41859EC01       DC32 1494807662, 2595684844, 1335535747, 2507040230, 4293295786
   \              B79A83A89A4F
   \              E6656E95AA7E
   \              E6FF        
   \   000002F8   2108CFBCEFE6       DC32 3167684641, 367585007, 3885750714, 1865862730, 2668221674
   \              E815BAD99BE7
   \              4ACE366FEAD4
   \              099F        
   \   0000030C   29D67CB031AF       DC32 2960971305, 2763173681, 1059270954, 2777952454, 2724642869
   \              B2A42A31233F
   \              C63094A535C0
   \              66A2        
   \   00000320   7437BC4EFCA6       DC32 1320957812, 2194319100, 2429595872, 2815956275, 77089521
   \              CA82E0B0D090
   \              3315D8A7F14A
   \              9804        
   \   00000334   41F7DAEC7F0E       DC32 3973773121, 3444575871, 2448830231, 1305906550, 4021308739
   \              50CD172FF691
   \              768DD64D434D
   \              B0EF        
   \   00000348   CC544DAAE4DF       DC32 2857194700, 2516901860, 3518358430, 1787304780, 740276417
   \              04969EE3B5D1
   \              4C1B886AC1B8
   \              1F2C        
   \   0000035C   467F51659D04       DC32 1699839814, 1592394909, 2352307457, 2272556026, 188821243
   \              EA5E015D358C
   \              FA737487FB2E
   \              410B        
   \   00000370   B35A1D679252       DC32 1729977011, 3687994002, 274084841, 3594982253, 3613494426
   \              D2DBE9335610
   \              6D1347D69A8C
   \              61D7        
   \   00000384   377A0CA1598E       DC32 2701949495, 4162096729, 322734571, 2837966542, 1640576439
   \              14F8EB893C13
   \              CEEE27A9B735
   \              C961        
   \   00000398   E1EDE51C7A3C       DC32 484830689, 1202797690, 3537852828, 4067639125, 349075736
   \              B1479C59DFD2
   \              553F73F21879
   \              CE14        
   \   000003AC   73BF37C753EA       DC32 3342319475, 4157467219, 4255800159, 1030690015, 1155237496
   \              CDF75F5BAAFD
   \              DF146F3D7886
   \              DB44        
   \   000003C0   CA81F3AFB93E       DC32 2951971274, 1757691577, 607398968, 2738905026, 499347990
   \              C468382C3424
   \              C25F40A31672
   \              C31D        
   \   000003D4   BC0C25E2288B       DC32 3794078908, 1011452712, 227885567, 2818666809, 213114376
   \              493CFF41950D
   \              397101A808DE
   \              B30C        
   \   000003E8   D89CE4B46490       DC32 3034881240, 1455525988, 3414450555, 850817237, 1817998408
   \              C1567B6184CB
   \              D570B6324874
   \              5C6C        
   \   000003FC   D04257B8           DC32 3092726480
    520              0xf4a75051U, 0x4165537eU, 0x17a4c31aU, 0x275e963aU,
    521              0xab6bcb3bU, 0x9d45f11fU, 0xfa58abacU, 0xe303934bU,
    522              0x30fa5520U, 0x766df6adU, 0xcc769188U, 0x024c25f5U,
    523              0xe5d7fc4fU, 0x2acbd7c5U, 0x35448026U, 0x62a38fb5U,
    524              0xb15a49deU, 0xba1b6725U, 0xea0e9845U, 0xfec0e15dU,
    525              0x2f7502c3U, 0x4cf01281U, 0x4697a38dU, 0xd3f9c66bU,
    526              0x8f5fe703U, 0x929c9515U, 0x6d7aebbfU, 0x5259da95U,
    527              0xbe832dd4U, 0x7421d358U, 0xe0692949U, 0xc9c8448eU,
    528              0xc2896a75U, 0x8e7978f4U, 0x583e6b99U, 0xb971dd27U,
    529              0xe14fb6beU, 0x88ad17f0U, 0x20ac66c9U, 0xce3ab47dU,
    530              0xdf4a1863U, 0x1a3182e5U, 0x51336097U, 0x537f4562U,
    531              0x6477e0b1U, 0x6bae84bbU, 0x81a01cfeU, 0x082b94f9U,
    532              0x48685870U, 0x45fd198fU, 0xde6c8794U, 0x7bf8b752U,
    533              0x73d323abU, 0x4b02e272U, 0x1f8f57e3U, 0x55ab2a66U,
    534              0xeb2807b2U, 0xb5c2032fU, 0xc57b9a86U, 0x3708a5d3U,
    535              0x2887f230U, 0xbfa5b223U, 0x036aba02U, 0x16825cedU,
    536              0xcf1c2b8aU, 0x79b492a7U, 0x07f2f0f3U, 0x69e2a14eU,
    537              0xdaf4cd65U, 0x05bed506U, 0x34621fd1U, 0xa6fe8ac4U,
    538              0x2e539d34U, 0xf355a0a2U, 0x8ae13205U, 0xf6eb75a4U,
    539              0x83ec390bU, 0x60efaa40U, 0x719f065eU, 0x6e1051bdU,
    540              0x218af93eU, 0xdd063d96U, 0x3e05aeddU, 0xe6bd464dU,
    541              0x548db591U, 0xc45d0571U, 0x06d46f04U, 0x5015ff60U,
    542              0x98fb2419U, 0xbde997d6U, 0x4043cc89U, 0xd99e7767U,
    543              0xe842bdb0U, 0x898b8807U, 0x195b38e7U, 0xc8eedb79U,
    544              0x7c0a47a1U, 0x420fe97cU, 0x841ec9f8U, 0x00000000U,
    545              0x80868309U, 0x2bed4832U, 0x1170ac1eU, 0x5a724e6cU,
    546              0x0efffbfdU, 0x8538560fU, 0xaed51e3dU, 0x2d392736U,
    547              0x0fd9640aU, 0x5ca62168U, 0x5b54d19bU, 0x362e3a24U,
    548              0x0a67b10cU, 0x57e70f93U, 0xee96d2b4U, 0x9b919e1bU,
    549              0xc0c54f80U, 0xdc20a261U, 0x774b695aU, 0x121a161cU,
    550              0x93ba0ae2U, 0xa02ae5c0U, 0x22e0433cU, 0x1b171d12U,
    551              0x090d0b0eU, 0x8bc7adf2U, 0xb6a8b92dU, 0x1ea9c814U,
    552              0xf1198557U, 0x75074cafU, 0x99ddbbeeU, 0x7f60fda3U,
    553              0x01269ff7U, 0x72f5bc5cU, 0x663bc544U, 0xfb7e345bU,
    554              0x4329768bU, 0x23c6dccbU, 0xedfc68b6U, 0xe4f163b8U,
    555              0x31dccad7U, 0x63851042U, 0x97224013U, 0xc6112084U,
    556              0x4a247d85U, 0xbb3df8d2U, 0xf93211aeU, 0x29a16dc7U,
    557              0x9e2f4b1dU, 0xb230f3dcU, 0x8652ec0dU, 0xc1e3d077U,
    558              0xb3166c2bU, 0x70b999a9U, 0x9448fa11U, 0xe9642247U,
    559              0xfc8cc4a8U, 0xf03f1aa0U, 0x7d2cd856U, 0x3390ef22U,
    560              0x494ec787U, 0x38d1c1d9U, 0xcaa2fe8cU, 0xd40b3698U,
    561              0xf581cfa6U, 0x7ade28a5U, 0xb78e26daU, 0xadbfa43fU,
    562              0x3a9de42cU, 0x78920d50U, 0x5fcc9b6aU, 0x7e466254U,
    563              0x8d13c2f6U, 0xd8b8e890U, 0x39f75e2eU, 0xc3aff582U,
    564              0x5d80be9fU, 0xd0937c69U, 0xd52da96fU, 0x2512b3cfU,
    565              0xac993bc8U, 0x187da710U, 0x9c636ee8U, 0x3bbb7bdbU,
    566              0x267809cdU, 0x5918f46eU, 0x9ab701ecU, 0x4f9aa883U,
    567              0x956e65e6U, 0xffe67eaaU, 0xbccf0821U, 0x15e8e6efU,
    568              0xe79bd9baU, 0x6f36ce4aU, 0x9f09d4eaU, 0xb07cd629U,
    569              0xa4b2af31U, 0x3f23312aU, 0xa59430c6U, 0xa266c035U,
    570              0x4ebc3774U, 0x82caa6fcU, 0x90d0b0e0U, 0xa7d81533U,
    571              0x04984af1U, 0xecdaf741U, 0xcd500e7fU, 0x91f62f17U,
    572              0x4dd68d76U, 0xefb04d43U, 0xaa4d54ccU, 0x9604dfe4U,
    573              0xd1b5e39eU, 0x6a881b4cU, 0x2c1fb8c1U, 0x65517f46U,
    574              0x5eea049dU, 0x8c355d01U, 0x877473faU, 0x0b412efbU,
    575              0x671d5ab3U, 0xdbd25292U, 0x105633e9U, 0xd647136dU,
    576              0xd7618c9aU, 0xa10c7a37U, 0xf8148e59U, 0x133c89ebU,
    577              0xa927eeceU, 0x61c935b7U, 0x1ce5ede1U, 0x47b13c7aU,
    578              0xd2df599cU, 0xf2733f55U, 0x14ce7918U, 0xc737bf73U,
    579              0xf7cdea53U, 0xfdaa5b5fU, 0x3d6f14dfU, 0x44db8678U,
    580              0xaff381caU, 0x68c43eb9U, 0x24342c38U, 0xa3405fc2U,
    581              0x1dc37216U, 0xe2250cbcU, 0x3c498b28U, 0x0d9541ffU,
    582              0xa8017139U, 0x0cb3de08U, 0xb4e49cd8U, 0x56c19064U,
    583              0xcb84617bU, 0x32b670d5U, 0x6c5c7448U, 0xb85742d0U,
    584          };

   \                                 In segment DATA_C, align 4, align-sorted
    585          static const u8 Td4[256] = {
   \                     Td4:
   \   00000000   52096AD53036       DC8 82, 9, 106, 213, 48, 54, 165, 56, 191, 64, 163, 158, 129, 243, 215
   \              A538BF40A39E
   \              81F3D7      
   \   0000000F   FB7CE339829B       DC8 251, 124, 227, 57, 130, 155, 47, 255, 135, 52, 142, 67, 68, 196
   \              2FFF87348E43
   \              44C4        
   \   0000001D   DEE9CB547B94       DC8 222, 233, 203, 84, 123, 148, 50, 166, 194, 35, 61, 238, 76, 149, 11
   \              32A6C2233DEE
   \              4C950B      
   \   0000002C   42FAC34E082E       DC8 66, 250, 195, 78, 8, 46, 161, 102, 40, 217, 36, 178, 118, 91, 162
   \              A16628D924B2
   \              765BA2      
   \   0000003B   496D8BD12572       DC8 73, 109, 139, 209, 37, 114, 248, 246, 100, 134, 104, 152, 22, 212
   \              F8F664866898
   \              16D4        
   \   00000049   A45CCC5D65B6       DC8 164, 92, 204, 93, 101, 182, 146, 108, 112, 72, 80, 253, 237, 185
   \              926C704850FD
   \              EDB9        
   \   00000057   DA5E154657A7       DC8 218, 94, 21, 70, 87, 167, 141, 157, 132, 144, 216, 171, 0, 140, 188
   \              8D9D8490D8AB
   \              008CBC      
   \   00000066   D30AF7E45805       DC8 211, 10, 247, 228, 88, 5, 184, 179, 69, 6, 208, 44, 30, 143, 202
   \              B8B34506D02C
   \              1E8FCA      
   \   00000075   3F0F02C1AFBD       DC8 63, 15, 2, 193, 175, 189, 3, 1, 19, 138, 107, 58, 145, 17, 65, 79
   \              0301138A6B3A
   \              9111414F    
   \   00000085   67DCEA97F2CF       DC8 103, 220, 234, 151, 242, 207, 206, 240, 180, 230, 115, 150, 172
   \              CEF0B4E67396
   \              AC          
   \   00000092   7422E7AD3585       DC8 116, 34, 231, 173, 53, 133, 226, 249, 55, 232, 28, 117, 223, 110
   \              E2F937E81C75
   \              DF6E        
   \   000000A0   47F11A711D29       DC8 71, 241, 26, 113, 29, 41, 197, 137, 111, 183, 98, 14, 170, 24, 190
   \              C5896FB7620E
   \              AA18BE      
   \   000000AF   1BFC563E4BC6       DC8 27, 252, 86, 62, 75, 198, 210, 121, 32, 154, 219, 192, 254, 120
   \              D279209ADBC0
   \              FE78        
   \   000000BD   CD5AF41FDDA8       DC8 205, 90, 244, 31, 221, 168, 51, 136, 7, 199, 49, 177, 18, 16, 89
   \              338807C731B1
   \              121059      
   \   000000CC   2780EC5F6051       DC8 39, 128, 236, 95, 96, 81, 127, 169, 25, 181, 74, 13, 45, 229, 122
   \              7FA919B54A0D
   \              2DE57A      
   \   000000DB   9F93C99CEFA0       DC8 159, 147, 201, 156, 239, 160, 224, 59, 77, 174, 42, 245, 176, 200
   \              E03B4DAE2AF5
   \              B0C8        
   \   000000E9   EBBB3C835399       DC8 235, 187, 60, 131, 83, 153, 97, 23, 43, 4, 126, 186, 119, 214, 38
   \              61172B047EBA
   \              77D626      
   \   000000F8   E16914635521       DC8 225, 105, 20, 99, 85, 33, 12, 125
   \              0C7D        
    586              0x52U, 0x09U, 0x6aU, 0xd5U, 0x30U, 0x36U, 0xa5U, 0x38U,
    587              0xbfU, 0x40U, 0xa3U, 0x9eU, 0x81U, 0xf3U, 0xd7U, 0xfbU,
    588              0x7cU, 0xe3U, 0x39U, 0x82U, 0x9bU, 0x2fU, 0xffU, 0x87U,
    589              0x34U, 0x8eU, 0x43U, 0x44U, 0xc4U, 0xdeU, 0xe9U, 0xcbU,
    590              0x54U, 0x7bU, 0x94U, 0x32U, 0xa6U, 0xc2U, 0x23U, 0x3dU,
    591              0xeeU, 0x4cU, 0x95U, 0x0bU, 0x42U, 0xfaU, 0xc3U, 0x4eU,
    592              0x08U, 0x2eU, 0xa1U, 0x66U, 0x28U, 0xd9U, 0x24U, 0xb2U,
    593              0x76U, 0x5bU, 0xa2U, 0x49U, 0x6dU, 0x8bU, 0xd1U, 0x25U,
    594              0x72U, 0xf8U, 0xf6U, 0x64U, 0x86U, 0x68U, 0x98U, 0x16U,
    595              0xd4U, 0xa4U, 0x5cU, 0xccU, 0x5dU, 0x65U, 0xb6U, 0x92U,
    596              0x6cU, 0x70U, 0x48U, 0x50U, 0xfdU, 0xedU, 0xb9U, 0xdaU,
    597              0x5eU, 0x15U, 0x46U, 0x57U, 0xa7U, 0x8dU, 0x9dU, 0x84U,
    598              0x90U, 0xd8U, 0xabU, 0x00U, 0x8cU, 0xbcU, 0xd3U, 0x0aU,
    599              0xf7U, 0xe4U, 0x58U, 0x05U, 0xb8U, 0xb3U, 0x45U, 0x06U,
    600              0xd0U, 0x2cU, 0x1eU, 0x8fU, 0xcaU, 0x3fU, 0x0fU, 0x02U,
    601              0xc1U, 0xafU, 0xbdU, 0x03U, 0x01U, 0x13U, 0x8aU, 0x6bU,
    602              0x3aU, 0x91U, 0x11U, 0x41U, 0x4fU, 0x67U, 0xdcU, 0xeaU,
    603              0x97U, 0xf2U, 0xcfU, 0xceU, 0xf0U, 0xb4U, 0xe6U, 0x73U,
    604              0x96U, 0xacU, 0x74U, 0x22U, 0xe7U, 0xadU, 0x35U, 0x85U,
    605              0xe2U, 0xf9U, 0x37U, 0xe8U, 0x1cU, 0x75U, 0xdfU, 0x6eU,
    606              0x47U, 0xf1U, 0x1aU, 0x71U, 0x1dU, 0x29U, 0xc5U, 0x89U,
    607              0x6fU, 0xb7U, 0x62U, 0x0eU, 0xaaU, 0x18U, 0xbeU, 0x1bU,
    608              0xfcU, 0x56U, 0x3eU, 0x4bU, 0xc6U, 0xd2U, 0x79U, 0x20U,
    609              0x9aU, 0xdbU, 0xc0U, 0xfeU, 0x78U, 0xcdU, 0x5aU, 0xf4U,
    610              0x1fU, 0xddU, 0xa8U, 0x33U, 0x88U, 0x07U, 0xc7U, 0x31U,
    611              0xb1U, 0x12U, 0x10U, 0x59U, 0x27U, 0x80U, 0xecU, 0x5fU,
    612              0x60U, 0x51U, 0x7fU, 0xa9U, 0x19U, 0xb5U, 0x4aU, 0x0dU,
    613              0x2dU, 0xe5U, 0x7aU, 0x9fU, 0x93U, 0xc9U, 0x9cU, 0xefU,
    614              0xa0U, 0xe0U, 0x3bU, 0x4dU, 0xaeU, 0x2aU, 0xf5U, 0xb0U,
    615              0xc8U, 0xebU, 0xbbU, 0x3cU, 0x83U, 0x53U, 0x99U, 0x61U,
    616              0x17U, 0x2bU, 0x04U, 0x7eU, 0xbaU, 0x77U, 0xd6U, 0x26U,
    617              0xe1U, 0x69U, 0x14U, 0x63U, 0x55U, 0x21U, 0x0cU, 0x7dU,
    618          };

   \                                 In segment DATA_C, align 4, align-sorted
    619          static const u32 rcon[] = {
   \                     rcon:
   \   00000000   000000010000       DC32 16777216, 33554432, 67108864, 134217728, 268435456, 536870912
   \              000200000004
   \              000000080000
   \              001000000020
   \   00000018   000000400000       DC32 1073741824, 2147483648, 452984832, 905969664
   \              00800000001B
   \              00000036    
    620          	0x01000000, 0x02000000, 0x04000000, 0x08000000,
    621          	0x10000000, 0x20000000, 0x40000000, 0x80000000,
    622          	0x1B000000, 0x36000000, /* for 128-bit blocks, Rijndael never uses more than 10 rcon values */
    623          };
    624          
    625          /**
    626           * Expand the cipher key into the encryption key schedule.
    627           */

   \                                 In segment CODE, align 4, keep-with-next
    628          int AES_set_encrypt_key(const unsigned char *userKey, const int bits,
    629          			AES_KEY *key) {
   \                     AES_set_encrypt_key:
   \   00000000   F0B5               PUSH     {R4-R7,LR}
   \   00000002   0500               MOVS     R5,R0
   \   00000004   0800               MOVS     R0,R1
   \   00000006   1300               MOVS     R3,R2
    630          
    631          	u32 *rk;
    632             	int i = 0;
   \   00000008   0021               MOVS     R1,#+0
    633          	u32 temp;
    634          
    635          	if (!userKey || !key)
   \   0000000A   002D               CMP      R5,#+0
   \   0000000C   01D0               BEQ      ??AES_set_encrypt_key_0
   \   0000000E   002B               CMP      R3,#+0
   \   00000010   01D1               BNE      ??AES_set_encrypt_key_1
    636          		return -1;
   \                     ??AES_set_encrypt_key_0:
   \   00000012   0020               MOVS     R0,#+0
   \   00000014   08E0               B.N      ??AES_set_encrypt_key_2
   \                     ??AES_set_encrypt_key_1:
   \   00000016   8028               CMP      R0,#+128
   \   00000018   08D0               BEQ      ??AES_set_encrypt_key_3
   \   0000001A   C028               CMP      R0,#+192
   \   0000001C   06D0               BEQ      ??AES_set_encrypt_key_3
   \   0000001E   8022               MOVS     R2,#+128
   \   00000020   5200               LSLS     R2,R2,#+1
   \   00000022   9042               CMP      R0,R2
   \   00000024   02D0               BEQ      ??AES_set_encrypt_key_3
    637          	if (bits != 128 && bits != 192 && bits != 256)
    638          		return -2;
   \   00000026   0120               MOVS     R0,#+1
   \                     ??AES_set_encrypt_key_2:
   \   00000028   C043               MVNS     R0,R0
   \   0000002A   F0BD               POP      {R4-R7,PC}
    639          
    640          	rk = key->rd_key;
   \                     ??AES_set_encrypt_key_3:
   \   0000002C   1A00               MOVS     R2,R3
    641          
    642          	if (bits==128)
   \   0000002E   8028               CMP      R0,#+128
   \   00000030   01D1               BNE      ??AES_set_encrypt_key_4
    643          		key->rounds = 10;
   \   00000032   0A24               MOVS     R4,#+10
   \   00000034   04E0               B        ??AES_set_encrypt_key_5
    644          	else if (bits==192)
   \                     ??AES_set_encrypt_key_4:
   \   00000036   C028               CMP      R0,#+192
   \   00000038   01D1               BNE      ??AES_set_encrypt_key_6
    645          		key->rounds = 12;
   \   0000003A   0C24               MOVS     R4,#+12
   \   0000003C   00E0               B        ??AES_set_encrypt_key_5
    646          	else
    647          		key->rounds = 14;
   \                     ??AES_set_encrypt_key_6:
   \   0000003E   0E24               MOVS     R4,#+14
   \                     ??AES_set_encrypt_key_5:
   \   00000040   F033               ADDS     R3,R3,#+240
   \   00000042   1C60               STR      R4,[R3, #+0]
    648          
    649          	rk[0] = GETU32(userKey     );
   \   00000044   2B78               LDRB     R3,[R5, #+0]
   \   00000046   6C78               LDRB     R4,[R5, #+1]
   \   00000048   1B06               LSLS     R3,R3,#+24
   \   0000004A   2404               LSLS     R4,R4,#+16
   \   0000004C   5C40               EORS     R4,R4,R3
   \   0000004E   AB78               LDRB     R3,[R5, #+2]
   \   00000050   1B02               LSLS     R3,R3,#+8
   \   00000052   6340               EORS     R3,R3,R4
   \   00000054   EC78               LDRB     R4,[R5, #+3]
   \   00000056   5C40               EORS     R4,R4,R3
   \   00000058   1460               STR      R4,[R2, #+0]
    650          	rk[1] = GETU32(userKey +  4);
   \   0000005A   2B79               LDRB     R3,[R5, #+4]
   \   0000005C   6C79               LDRB     R4,[R5, #+5]
   \   0000005E   1B06               LSLS     R3,R3,#+24
   \   00000060   2404               LSLS     R4,R4,#+16
   \   00000062   5C40               EORS     R4,R4,R3
   \   00000064   AB79               LDRB     R3,[R5, #+6]
   \   00000066   1B02               LSLS     R3,R3,#+8
   \   00000068   6340               EORS     R3,R3,R4
   \   0000006A   EC79               LDRB     R4,[R5, #+7]
   \   0000006C   5C40               EORS     R4,R4,R3
   \   0000006E   5460               STR      R4,[R2, #+4]
    651          	rk[2] = GETU32(userKey +  8);
   \   00000070   2B7A               LDRB     R3,[R5, #+8]
   \   00000072   6C7A               LDRB     R4,[R5, #+9]
   \   00000074   1B06               LSLS     R3,R3,#+24
   \   00000076   2404               LSLS     R4,R4,#+16
   \   00000078   5C40               EORS     R4,R4,R3
   \   0000007A   AB7A               LDRB     R3,[R5, #+10]
   \   0000007C   1B02               LSLS     R3,R3,#+8
   \   0000007E   6340               EORS     R3,R3,R4
   \   00000080   EC7A               LDRB     R4,[R5, #+11]
   \   00000082   5C40               EORS     R4,R4,R3
   \   00000084   9460               STR      R4,[R2, #+8]
    652          	rk[3] = GETU32(userKey + 12);
   \   00000086   2B7B               LDRB     R3,[R5, #+12]
   \   00000088   6C7B               LDRB     R4,[R5, #+13]
   \   0000008A   1B06               LSLS     R3,R3,#+24
   \   0000008C   2404               LSLS     R4,R4,#+16
   \   0000008E   5C40               EORS     R4,R4,R3
   \   00000090   AB7B               LDRB     R3,[R5, #+14]
   \   00000092   1B02               LSLS     R3,R3,#+8
   \   00000094   6340               EORS     R3,R3,R4
   \   00000096   EC7B               LDRB     R4,[R5, #+15]
   \   00000098   5C40               EORS     R4,R4,R3
   \   0000009A   D460               STR      R4,[R2, #+12]
   \   0000009C   ....               LDR      R4,??DataTable0  ;; Te2
   \   0000009E   FF23               MOVS     R3,#+255
   \   000000A0   8028               CMP      R0,#+128
   \   000000A2   55D0               BEQ      ??AES_set_encrypt_key_7
    653          	if (bits == 128) {
    654          		while (1) {
    655          			temp  = rk[3];
    656          			rk[4] = rk[0] ^
    657          				(Te2[(temp >> 16) & 0xff] & 0xff000000) ^
    658          				(Te3[(temp >>  8) & 0xff] & 0x00ff0000) ^
    659          				(Te0[(temp      ) & 0xff] & 0x0000ff00) ^
    660          				(Te1[(temp >> 24)       ] & 0x000000ff) ^
    661          				rcon[i];
    662          			rk[5] = rk[1] ^ rk[4];
    663          			rk[6] = rk[2] ^ rk[5];
    664          			rk[7] = rk[3] ^ rk[6];
    665          			if (++i == 10) {
    666          				return 0;
    667          			}
    668          			rk += 4;
    669          		}
    670          	}
    671          	rk[4] = GETU32(userKey + 16);
   \   000000A4   2E7C               LDRB     R6,[R5, #+16]
   \   000000A6   3706               LSLS     R7,R6,#+24
   \   000000A8   6E7C               LDRB     R6,[R5, #+17]
   \   000000AA   3604               LSLS     R6,R6,#+16
   \   000000AC   7E40               EORS     R6,R6,R7
   \   000000AE   AF7C               LDRB     R7,[R5, #+18]
   \   000000B0   3F02               LSLS     R7,R7,#+8
   \   000000B2   7740               EORS     R7,R7,R6
   \   000000B4   EE7C               LDRB     R6,[R5, #+19]
   \   000000B6   7E40               EORS     R6,R6,R7
   \   000000B8   1661               STR      R6,[R2, #+16]
    672          	rk[5] = GETU32(userKey + 20);
   \   000000BA   2E7D               LDRB     R6,[R5, #+20]
   \   000000BC   3706               LSLS     R7,R6,#+24
   \   000000BE   6E7D               LDRB     R6,[R5, #+21]
   \   000000C0   3604               LSLS     R6,R6,#+16
   \   000000C2   7E40               EORS     R6,R6,R7
   \   000000C4   AF7D               LDRB     R7,[R5, #+22]
   \   000000C6   3F02               LSLS     R7,R7,#+8
   \   000000C8   7740               EORS     R7,R7,R6
   \   000000CA   EE7D               LDRB     R6,[R5, #+23]
   \   000000CC   7E40               EORS     R6,R6,R7
   \   000000CE   5661               STR      R6,[R2, #+20]
    673          	if (bits == 192) {
   \   000000D0   C028               CMP      R0,#+192
   \   000000D2   72D1               BNE      ??AES_set_encrypt_key_8
    674          		while (1) {
    675          			temp = rk[ 5];
   \                     ??AES_set_encrypt_key_9:
   \   000000D4   5569               LDR      R5,[R2, #+20]
    676          			rk[ 6] = rk[ 0] ^
    677          				(Te2[(temp >> 16) & 0xff] & 0xff000000) ^
    678          				(Te3[(temp >>  8) & 0xff] & 0x00ff0000) ^
    679          				(Te0[(temp      ) & 0xff] & 0x0000ff00) ^
    680          				(Te1[(temp >> 24)       ] & 0x000000ff) ^
    681          				rcon[i];
   \   000000D6   1668               LDR      R6,[R2, #+0]
   \   000000D8   ....               LDR      R7,??DataTable10  ;; Te3
   \   000000DA   280C               LSRS     R0,R5,#+16
   \   000000DC   1840               ANDS     R0,R0,R3
   \   000000DE   8000               LSLS     R0,R0,#+2
   \   000000E0   2058               LDR      R0,[R4, R0]
   \   000000E2   000E               LSRS     R0,R0,#+24
   \   000000E4   0006               LSLS     R0,R0,#+24
   \   000000E6   7040               EORS     R0,R0,R6
   \   000000E8   2E0A               LSRS     R6,R5,#+8
   \   000000EA   1E40               ANDS     R6,R6,R3
   \   000000EC   B600               LSLS     R6,R6,#+2
   \   000000EE   BF59               LDR      R7,[R7, R6]
   \   000000F0   1E04               LSLS     R6,R3,#+16
   \   000000F2   3E40               ANDS     R6,R6,R7
   \   000000F4   ....               LDR      R7,??DataTable11  ;; Te0
   \   000000F6   4640               EORS     R6,R6,R0
   \   000000F8   FF20               MOVS     R0,#+255
   \   000000FA   2840               ANDS     R0,R0,R5
   \   000000FC   8000               LSLS     R0,R0,#+2
   \   000000FE   3F58               LDR      R7,[R7, R0]
   \   00000100   1802               LSLS     R0,R3,#+8
   \   00000102   3840               ANDS     R0,R0,R7
   \   00000104   7040               EORS     R0,R0,R6
   \   00000106   ....               LDR      R6,??DataTable13  ;; Te1
   \   00000108   2D0E               LSRS     R5,R5,#+24
   \   0000010A   AD00               LSLS     R5,R5,#+2
   \   0000010C   7559               LDR      R5,[R6, R5]
   \   0000010E   674E               LDR      R6,??AES_set_encrypt_key_10  ;; rcon
   \   00000110   1D40               ANDS     R5,R5,R3
   \   00000112   4540               EORS     R5,R5,R0
   \   00000114   8800               LSLS     R0,R1,#+2
   \   00000116   3058               LDR      R0,[R6, R0]
    682          			rk[ 7] = rk[ 1] ^ rk[ 6];
    683          			rk[ 8] = rk[ 2] ^ rk[ 7];
    684          			rk[ 9] = rk[ 3] ^ rk[ 8];
    685          			if (++i == 8) {
   \   00000118   491C               ADDS     R1,R1,#+1
   \   0000011A   6840               EORS     R0,R0,R5
   \   0000011C   9061               STR      R0,[R2, #+24]
   \   0000011E   5068               LDR      R0,[R2, #+4]
   \   00000120   9569               LDR      R5,[R2, #+24]
   \   00000122   4540               EORS     R5,R5,R0
   \   00000124   D561               STR      R5,[R2, #+28]
   \   00000126   9068               LDR      R0,[R2, #+8]
   \   00000128   D569               LDR      R5,[R2, #+28]
   \   0000012A   4540               EORS     R5,R5,R0
   \   0000012C   1562               STR      R5,[R2, #+32]
   \   0000012E   D068               LDR      R0,[R2, #+12]
   \   00000130   156A               LDR      R5,[R2, #+32]
   \   00000132   4540               EORS     R5,R5,R0
   \   00000134   5562               STR      R5,[R2, #+36]
   \   00000136   0829               CMP      R1,#+8
   \   00000138   3DD0               BEQ      ??AES_set_encrypt_key_11
    686          				return 0;
    687          			}
    688          			rk[10] = rk[ 4] ^ rk[ 9];
   \   0000013A   1069               LDR      R0,[R2, #+16]
   \   0000013C   556A               LDR      R5,[R2, #+36]
   \   0000013E   4540               EORS     R5,R5,R0
   \   00000140   9562               STR      R5,[R2, #+40]
    689          			rk[11] = rk[ 5] ^ rk[10];
   \   00000142   5069               LDR      R0,[R2, #+20]
   \   00000144   956A               LDR      R5,[R2, #+40]
   \   00000146   4540               EORS     R5,R5,R0
   \   00000148   D562               STR      R5,[R2, #+44]
    690          			rk += 6;
   \   0000014A   1832               ADDS     R2,R2,#+24
   \   0000014C   C2E7               B        ??AES_set_encrypt_key_9
    691          		}
    692          	}
   \                     ??AES_set_encrypt_key_12:
   \   0000014E   1032               ADDS     R2,R2,#+16
   \                     ??AES_set_encrypt_key_7:
   \   00000150   D568               LDR      R5,[R2, #+12]
   \   00000152   1668               LDR      R6,[R2, #+0]
   \   00000154   ....               LDR      R7,??DataTable10  ;; Te3
   \   00000156   280C               LSRS     R0,R5,#+16
   \   00000158   1840               ANDS     R0,R0,R3
   \   0000015A   8000               LSLS     R0,R0,#+2
   \   0000015C   2058               LDR      R0,[R4, R0]
   \   0000015E   000E               LSRS     R0,R0,#+24
   \   00000160   0006               LSLS     R0,R0,#+24
   \   00000162   7040               EORS     R0,R0,R6
   \   00000164   2E0A               LSRS     R6,R5,#+8
   \   00000166   1E40               ANDS     R6,R6,R3
   \   00000168   B600               LSLS     R6,R6,#+2
   \   0000016A   BF59               LDR      R7,[R7, R6]
   \   0000016C   1E04               LSLS     R6,R3,#+16
   \   0000016E   3E40               ANDS     R6,R6,R7
   \   00000170   ....               LDR      R7,??DataTable11  ;; Te0
   \   00000172   4640               EORS     R6,R6,R0
   \   00000174   FF20               MOVS     R0,#+255
   \   00000176   2840               ANDS     R0,R0,R5
   \   00000178   8000               LSLS     R0,R0,#+2
   \   0000017A   3F58               LDR      R7,[R7, R0]
   \   0000017C   1802               LSLS     R0,R3,#+8
   \   0000017E   3840               ANDS     R0,R0,R7
   \   00000180   7040               EORS     R0,R0,R6
   \   00000182   ....               LDR      R6,??DataTable13  ;; Te1
   \   00000184   2D0E               LSRS     R5,R5,#+24
   \   00000186   AD00               LSLS     R5,R5,#+2
   \   00000188   7559               LDR      R5,[R6, R5]
   \   0000018A   484E               LDR      R6,??AES_set_encrypt_key_10  ;; rcon
   \   0000018C   1D40               ANDS     R5,R5,R3
   \   0000018E   4540               EORS     R5,R5,R0
   \   00000190   8800               LSLS     R0,R1,#+2
   \   00000192   3058               LDR      R0,[R6, R0]
   \   00000194   491C               ADDS     R1,R1,#+1
   \   00000196   6840               EORS     R0,R0,R5
   \   00000198   1061               STR      R0,[R2, #+16]
   \   0000019A   5068               LDR      R0,[R2, #+4]
   \   0000019C   1569               LDR      R5,[R2, #+16]
   \   0000019E   4540               EORS     R5,R5,R0
   \   000001A0   5561               STR      R5,[R2, #+20]
   \   000001A2   9068               LDR      R0,[R2, #+8]
   \   000001A4   5569               LDR      R5,[R2, #+20]
   \   000001A6   4540               EORS     R5,R5,R0
   \   000001A8   9561               STR      R5,[R2, #+24]
   \   000001AA   D068               LDR      R0,[R2, #+12]
   \   000001AC   9569               LDR      R5,[R2, #+24]
   \   000001AE   4540               EORS     R5,R5,R0
   \   000001B0   D561               STR      R5,[R2, #+28]
   \   000001B2   0A29               CMP      R1,#+10
   \   000001B4   CBD1               BNE      ??AES_set_encrypt_key_12
   \                     ??AES_set_encrypt_key_11:
   \   000001B6   0020               MOVS     R0,#+0
   \   000001B8   F0BD               POP      {R4-R7,PC}
    693          	rk[6] = GETU32(userKey + 24);
   \                     ??AES_set_encrypt_key_8:
   \   000001BA   2E7E               LDRB     R6,[R5, #+24]
   \   000001BC   3706               LSLS     R7,R6,#+24
   \   000001BE   6E7E               LDRB     R6,[R5, #+25]
   \   000001C0   3604               LSLS     R6,R6,#+16
   \   000001C2   7E40               EORS     R6,R6,R7
   \   000001C4   AF7E               LDRB     R7,[R5, #+26]
   \   000001C6   3F02               LSLS     R7,R7,#+8
   \   000001C8   7740               EORS     R7,R7,R6
   \   000001CA   EE7E               LDRB     R6,[R5, #+27]
   \   000001CC   7E40               EORS     R6,R6,R7
   \   000001CE   9661               STR      R6,[R2, #+24]
    694          	rk[7] = GETU32(userKey + 28);
   \   000001D0   2E7F               LDRB     R6,[R5, #+28]
   \   000001D2   3706               LSLS     R7,R6,#+24
   \   000001D4   6E7F               LDRB     R6,[R5, #+29]
   \   000001D6   3604               LSLS     R6,R6,#+16
   \   000001D8   7E40               EORS     R6,R6,R7
   \   000001DA   AF7F               LDRB     R7,[R5, #+30]
   \   000001DC   ED7F               LDRB     R5,[R5, #+31]
   \   000001DE   3F02               LSLS     R7,R7,#+8
   \   000001E0   7740               EORS     R7,R7,R6
   \   000001E2   7D40               EORS     R5,R5,R7
   \   000001E4   D561               STR      R5,[R2, #+28]
    695          	if (bits == 256) {
   \   000001E6   5D1C               ADDS     R5,R3,#+1
   \   000001E8   A842               CMP      R0,R5
   \   000001EA   E4D1               BNE      ??AES_set_encrypt_key_11
    696          		while (1) {
    697          			temp = rk[ 7];
   \                     ??AES_set_encrypt_key_13:
   \   000001EC   D569               LDR      R5,[R2, #+28]
    698          			rk[ 8] = rk[ 0] ^
    699          				(Te2[(temp >> 16) & 0xff] & 0xff000000) ^
    700          				(Te3[(temp >>  8) & 0xff] & 0x00ff0000) ^
    701          				(Te0[(temp      ) & 0xff] & 0x0000ff00) ^
    702          				(Te1[(temp >> 24)       ] & 0x000000ff) ^
    703          				rcon[i];
   \   000001EE   1668               LDR      R6,[R2, #+0]
   \   000001F0   ....               LDR      R7,??DataTable10  ;; Te3
   \   000001F2   280C               LSRS     R0,R5,#+16
   \   000001F4   1840               ANDS     R0,R0,R3
   \   000001F6   8000               LSLS     R0,R0,#+2
   \   000001F8   2058               LDR      R0,[R4, R0]
   \   000001FA   000E               LSRS     R0,R0,#+24
   \   000001FC   0006               LSLS     R0,R0,#+24
   \   000001FE   7040               EORS     R0,R0,R6
   \   00000200   2E0A               LSRS     R6,R5,#+8
   \   00000202   1E40               ANDS     R6,R6,R3
   \   00000204   B600               LSLS     R6,R6,#+2
   \   00000206   BF59               LDR      R7,[R7, R6]
   \   00000208   1E04               LSLS     R6,R3,#+16
   \   0000020A   3E40               ANDS     R6,R6,R7
   \   0000020C   ....               LDR      R7,??DataTable11  ;; Te0
   \   0000020E   4640               EORS     R6,R6,R0
   \   00000210   FF20               MOVS     R0,#+255
   \   00000212   2840               ANDS     R0,R0,R5
   \   00000214   8000               LSLS     R0,R0,#+2
   \   00000216   3F58               LDR      R7,[R7, R0]
   \   00000218   1802               LSLS     R0,R3,#+8
   \   0000021A   3840               ANDS     R0,R0,R7
   \   0000021C   7040               EORS     R0,R0,R6
   \   0000021E   ....               LDR      R6,??DataTable13  ;; Te1
   \   00000220   2D0E               LSRS     R5,R5,#+24
   \   00000222   AD00               LSLS     R5,R5,#+2
   \   00000224   7559               LDR      R5,[R6, R5]
   \   00000226   214E               LDR      R6,??AES_set_encrypt_key_10  ;; rcon
   \   00000228   1D40               ANDS     R5,R5,R3
   \   0000022A   4540               EORS     R5,R5,R0
   \   0000022C   8800               LSLS     R0,R1,#+2
   \   0000022E   3058               LDR      R0,[R6, R0]
    704          			rk[ 9] = rk[ 1] ^ rk[ 8];
    705          			rk[10] = rk[ 2] ^ rk[ 9];
    706          			rk[11] = rk[ 3] ^ rk[10];
    707          			if (++i == 7) {
   \   00000230   491C               ADDS     R1,R1,#+1
   \   00000232   6840               EORS     R0,R0,R5
   \   00000234   1062               STR      R0,[R2, #+32]
   \   00000236   5068               LDR      R0,[R2, #+4]
   \   00000238   156A               LDR      R5,[R2, #+32]
   \   0000023A   4540               EORS     R5,R5,R0
   \   0000023C   5562               STR      R5,[R2, #+36]
   \   0000023E   9068               LDR      R0,[R2, #+8]
   \   00000240   556A               LDR      R5,[R2, #+36]
   \   00000242   4540               EORS     R5,R5,R0
   \   00000244   9562               STR      R5,[R2, #+40]
   \   00000246   D068               LDR      R0,[R2, #+12]
   \   00000248   956A               LDR      R5,[R2, #+40]
   \   0000024A   4540               EORS     R5,R5,R0
   \   0000024C   D562               STR      R5,[R2, #+44]
   \   0000024E   0729               CMP      R1,#+7
   \   00000250   B1D0               BEQ      ??AES_set_encrypt_key_11
    708          				return 0;
    709          			}
    710          			temp = rk[11];
   \   00000252   D56A               LDR      R5,[R2, #+44]
    711          			rk[12] = rk[ 4] ^
    712          				(Te2[(temp >> 24)       ] & 0xff000000) ^
    713          				(Te3[(temp >> 16) & 0xff] & 0x00ff0000) ^
    714          				(Te0[(temp >>  8) & 0xff] & 0x0000ff00) ^
    715          				(Te1[(temp      ) & 0xff] & 0x000000ff);
   \   00000254   1669               LDR      R6,[R2, #+16]
   \   00000256   ....               LDR      R7,??DataTable10  ;; Te3
   \   00000258   280E               LSRS     R0,R5,#+24
   \   0000025A   8000               LSLS     R0,R0,#+2
   \   0000025C   2058               LDR      R0,[R4, R0]
   \   0000025E   000E               LSRS     R0,R0,#+24
   \   00000260   0006               LSLS     R0,R0,#+24
   \   00000262   7040               EORS     R0,R0,R6
   \   00000264   2E0C               LSRS     R6,R5,#+16
   \   00000266   1E40               ANDS     R6,R6,R3
   \   00000268   B600               LSLS     R6,R6,#+2
   \   0000026A   BF59               LDR      R7,[R7, R6]
   \   0000026C   1E04               LSLS     R6,R3,#+16
   \   0000026E   3E40               ANDS     R6,R6,R7
   \   00000270   ....               LDR      R7,??DataTable11  ;; Te0
   \   00000272   4640               EORS     R6,R6,R0
   \   00000274   280A               LSRS     R0,R5,#+8
   \   00000276   1840               ANDS     R0,R0,R3
   \   00000278   8000               LSLS     R0,R0,#+2
   \   0000027A   3F58               LDR      R7,[R7, R0]
   \   0000027C   1802               LSLS     R0,R3,#+8
   \   0000027E   3840               ANDS     R0,R0,R7
   \   00000280   7040               EORS     R0,R0,R6
   \   00000282   ....               LDR      R6,??DataTable13  ;; Te1
   \   00000284   1D40               ANDS     R5,R5,R3
   \   00000286   AD00               LSLS     R5,R5,#+2
   \   00000288   7559               LDR      R5,[R6, R5]
   \   0000028A   1D40               ANDS     R5,R5,R3
   \   0000028C   4540               EORS     R5,R5,R0
   \   0000028E   1563               STR      R5,[R2, #+48]
    716          			rk[13] = rk[ 5] ^ rk[12];
   \   00000290   5069               LDR      R0,[R2, #+20]
   \   00000292   156B               LDR      R5,[R2, #+48]
   \   00000294   4540               EORS     R5,R5,R0
   \   00000296   5563               STR      R5,[R2, #+52]
    717          			rk[14] = rk[ 6] ^ rk[13];
   \   00000298   9069               LDR      R0,[R2, #+24]
   \   0000029A   556B               LDR      R5,[R2, #+52]
   \   0000029C   4540               EORS     R5,R5,R0
   \   0000029E   9563               STR      R5,[R2, #+56]
    718          			rk[15] = rk[ 7] ^ rk[14];
   \   000002A0   D069               LDR      R0,[R2, #+28]
   \   000002A2   956B               LDR      R5,[R2, #+56]
   \   000002A4   4540               EORS     R5,R5,R0
   \   000002A6   D563               STR      R5,[R2, #+60]
    719          
    720          			rk += 8;
   \   000002A8   2032               ADDS     R2,R2,#+32
   \   000002AA   9FE7               B        ??AES_set_encrypt_key_13
   \                     ??AES_set_encrypt_key_10:
   \   000002AC   ........           DC32     rcon
    721                  	}
    722          	}
    723          	return 0;
    724          }
    725          
    726          /**
    727           * Expand the cipher key into the decryption key schedule.
    728           */

   \                                 In segment CODE, align 4, keep-with-next
    729          int AES_set_decrypt_key(const unsigned char *userKey, const int bits,
    730          			 AES_KEY *key) {
   \                     AES_set_decrypt_key:
   \   00000000   F1B5               PUSH     {R0,R4-R7,LR}
   \   00000002   1400               MOVS     R4,R2
    731          
    732                  u32 *rk;
    733          	int i, j, status;
    734          	u32 temp;
    735          
    736          	/* first, start with an encryption schedule */
    737          	status = AES_set_encrypt_key(userKey, bits, key);
   \   00000004   ........           BL       AES_set_encrypt_key
    738          	if (status < 0)
   \   00000008   0028               CMP      R0,#+0
   \   0000000A   ....               BPL      .+5
   \   0000000C   C7E0               B        ??AES_set_decrypt_key_0
    739          		return status;
    740          
    741          	rk = key->rd_key;
   \   0000000E   2100               MOVS     R1,R4
    742          
    743          	/* invert the order of the round keys: */
    744          	for (i = 0, j = 4*(key->rounds); i < j; i += 4, j -= 4) {
   \   00000010   F034               ADDS     R4,R4,#+240
   \   00000012   2268               LDR      R2,[R4, #+0]
   \   00000014   0020               MOVS     R0,#+0
   \   00000016   0092               STR      R2,[SP, #+0]
   \   00000018   9200               LSLS     R2,R2,#+2
   \   0000001A   15E0               B        ??AES_set_decrypt_key_1
    745          		temp = rk[i    ]; rk[i    ] = rk[j    ]; rk[j    ] = temp;
   \                     ??AES_set_decrypt_key_2:
   \   0000001C   8300               LSLS     R3,R0,#+2
   \   0000001E   CB18               ADDS     R3,R1,R3
   \   00000020   1D68               LDR      R5,[R3, #+0]
   \   00000022   9400               LSLS     R4,R2,#+2
   \   00000024   0C19               ADDS     R4,R1,R4
   \   00000026   2668               LDR      R6,[R4, #+0]
    746          		temp = rk[i + 1]; rk[i + 1] = rk[j + 1]; rk[j + 1] = temp;
    747          		temp = rk[i + 2]; rk[i + 2] = rk[j + 2]; rk[j + 2] = temp;
    748          		temp = rk[i + 3]; rk[i + 3] = rk[j + 3]; rk[j + 3] = temp;
    749          	}
   \   00000028   001D               ADDS     R0,R0,#+4
   \   0000002A   1E60               STR      R6,[R3, #+0]
   \   0000002C   2560               STR      R5,[R4, #+0]
   \   0000002E   5D68               LDR      R5,[R3, #+4]
   \   00000030   6668               LDR      R6,[R4, #+4]
   \   00000032   121F               SUBS     R2,R2,#+4
   \   00000034   5E60               STR      R6,[R3, #+4]
   \   00000036   6560               STR      R5,[R4, #+4]
   \   00000038   9D68               LDR      R5,[R3, #+8]
   \   0000003A   A668               LDR      R6,[R4, #+8]
   \   0000003C   9E60               STR      R6,[R3, #+8]
   \   0000003E   A560               STR      R5,[R4, #+8]
   \   00000040   DD68               LDR      R5,[R3, #+12]
   \   00000042   E668               LDR      R6,[R4, #+12]
   \   00000044   DE60               STR      R6,[R3, #+12]
   \   00000046   E560               STR      R5,[R4, #+12]
   \                     ??AES_set_decrypt_key_1:
   \   00000048   9042               CMP      R0,R2
   \   0000004A   E7DB               BLT      ??AES_set_decrypt_key_2
    750          	/* apply the inverse MixColumn transform to all round keys but the first and the last: */
    751          	for (i = 1; i < (key->rounds); i++) {
   \   0000004C   0120               MOVS     R0,#+1
   \   0000004E   A1E0               B        ??AES_set_decrypt_key_3
    752          		rk += 4;
    753          		rk[0] =
    754          			Td0[Te1[(rk[0] >> 24)       ] & 0xff] ^
    755          			Td1[Te1[(rk[0] >> 16) & 0xff] & 0xff] ^
    756          			Td2[Te1[(rk[0] >>  8) & 0xff] & 0xff] ^
    757          			Td3[Te1[(rk[0]      ) & 0xff] & 0xff];
   \                     ??AES_set_decrypt_key_4:
   \   00000050   ....               LDR      R4,??DataTable13  ;; Te1
   \   00000052   ....               LDR      R2,??DataTable14  ;; Td3
   \   00000054   ....               LDR      R5,??DataTable15  ;; Td0
   \   00000056   1031               ADDS     R1,R1,#+16
   \   00000058   0E68               LDR      R6,[R1, #+0]
   \   0000005A   FF23               MOVS     R3,#+255
   \   0000005C   360E               LSRS     R6,R6,#+24
   \   0000005E   B600               LSLS     R6,R6,#+2
   \   00000060   A659               LDR      R6,[R4, R6]
   \   00000062   1E40               ANDS     R6,R6,R3
   \   00000064   B600               LSLS     R6,R6,#+2
   \   00000066   AF59               LDR      R7,[R5, R6]
   \   00000068   0E68               LDR      R6,[R1, #+0]
   \   0000006A   BC46               MOV      R12,R7
   \   0000006C   360C               LSRS     R6,R6,#+16
   \   0000006E   1E40               ANDS     R6,R6,R3
   \   00000070   B600               LSLS     R6,R6,#+2
   \   00000072   A659               LDR      R6,[R4, R6]
   \   00000074   1E40               ANDS     R6,R6,R3
   \   00000076   B700               LSLS     R7,R6,#+2
   \   00000078   ....               LDR      R6,??DataTable22  ;; Td1
   \   0000007A   F659               LDR      R6,[R6, R7]
   \   0000007C   6746               MOV      R7,R12
   \   0000007E   7E40               EORS     R6,R6,R7
   \   00000080   B446               MOV      R12,R6
   \   00000082   0E68               LDR      R6,[R1, #+0]
   \   00000084   360A               LSRS     R6,R6,#+8
   \   00000086   1E40               ANDS     R6,R6,R3
   \   00000088   B600               LSLS     R6,R6,#+2
   \   0000008A   A659               LDR      R6,[R4, R6]
   \   0000008C   1E40               ANDS     R6,R6,R3
   \   0000008E   B700               LSLS     R7,R6,#+2
   \   00000090   ....               LDR      R6,??DataTable23  ;; Td2
   \   00000092   F659               LDR      R6,[R6, R7]
   \   00000094   6746               MOV      R7,R12
   \   00000096   7E40               EORS     R6,R6,R7
   \   00000098   0F68               LDR      R7,[R1, #+0]
   \   0000009A   1F40               ANDS     R7,R7,R3
   \   0000009C   BF00               LSLS     R7,R7,#+2
   \   0000009E   E759               LDR      R7,[R4, R7]
   \   000000A0   1F40               ANDS     R7,R7,R3
   \   000000A2   BF00               LSLS     R7,R7,#+2
   \   000000A4   D759               LDR      R7,[R2, R7]
   \   000000A6   7740               EORS     R7,R7,R6
   \   000000A8   0F60               STR      R7,[R1, #+0]
    758          		rk[1] =
    759          			Td0[Te1[(rk[1] >> 24)       ] & 0xff] ^
    760          			Td1[Te1[(rk[1] >> 16) & 0xff] & 0xff] ^
    761          			Td2[Te1[(rk[1] >>  8) & 0xff] & 0xff] ^
    762          			Td3[Te1[(rk[1]      ) & 0xff] & 0xff];
   \   000000AA   4E68               LDR      R6,[R1, #+4]
   \   000000AC   360E               LSRS     R6,R6,#+24
   \   000000AE   B600               LSLS     R6,R6,#+2
   \   000000B0   A659               LDR      R6,[R4, R6]
   \   000000B2   1E40               ANDS     R6,R6,R3
   \   000000B4   B600               LSLS     R6,R6,#+2
   \   000000B6   AF59               LDR      R7,[R5, R6]
   \   000000B8   4E68               LDR      R6,[R1, #+4]
   \   000000BA   BC46               MOV      R12,R7
   \   000000BC   360C               LSRS     R6,R6,#+16
   \   000000BE   1E40               ANDS     R6,R6,R3
   \   000000C0   B600               LSLS     R6,R6,#+2
   \   000000C2   A659               LDR      R6,[R4, R6]
   \   000000C4   1E40               ANDS     R6,R6,R3
   \   000000C6   B700               LSLS     R7,R6,#+2
   \   000000C8   ....               LDR      R6,??DataTable22  ;; Td1
   \   000000CA   F659               LDR      R6,[R6, R7]
   \   000000CC   6746               MOV      R7,R12
   \   000000CE   7E40               EORS     R6,R6,R7
   \   000000D0   B446               MOV      R12,R6
   \   000000D2   4E68               LDR      R6,[R1, #+4]
   \   000000D4   360A               LSRS     R6,R6,#+8
   \   000000D6   1E40               ANDS     R6,R6,R3
   \   000000D8   B600               LSLS     R6,R6,#+2
   \   000000DA   A659               LDR      R6,[R4, R6]
   \   000000DC   1E40               ANDS     R6,R6,R3
   \   000000DE   B700               LSLS     R7,R6,#+2
   \   000000E0   ....               LDR      R6,??DataTable23  ;; Td2
   \   000000E2   F659               LDR      R6,[R6, R7]
   \   000000E4   6746               MOV      R7,R12
   \   000000E6   7E40               EORS     R6,R6,R7
   \   000000E8   4F68               LDR      R7,[R1, #+4]
   \   000000EA   1F40               ANDS     R7,R7,R3
   \   000000EC   BF00               LSLS     R7,R7,#+2
   \   000000EE   E759               LDR      R7,[R4, R7]
   \   000000F0   1F40               ANDS     R7,R7,R3
   \   000000F2   BF00               LSLS     R7,R7,#+2
   \   000000F4   D759               LDR      R7,[R2, R7]
   \   000000F6   7740               EORS     R7,R7,R6
   \   000000F8   4F60               STR      R7,[R1, #+4]
    763          		rk[2] =
    764          			Td0[Te1[(rk[2] >> 24)       ] & 0xff] ^
    765          			Td1[Te1[(rk[2] >> 16) & 0xff] & 0xff] ^
    766          			Td2[Te1[(rk[2] >>  8) & 0xff] & 0xff] ^
    767          			Td3[Te1[(rk[2]      ) & 0xff] & 0xff];
   \   000000FA   8E68               LDR      R6,[R1, #+8]
   \   000000FC   360E               LSRS     R6,R6,#+24
   \   000000FE   B600               LSLS     R6,R6,#+2
   \   00000100   A659               LDR      R6,[R4, R6]
   \   00000102   1E40               ANDS     R6,R6,R3
   \   00000104   B600               LSLS     R6,R6,#+2
   \   00000106   AF59               LDR      R7,[R5, R6]
   \   00000108   8E68               LDR      R6,[R1, #+8]
   \   0000010A   BC46               MOV      R12,R7
   \   0000010C   360C               LSRS     R6,R6,#+16
   \   0000010E   1E40               ANDS     R6,R6,R3
   \   00000110   B600               LSLS     R6,R6,#+2
   \   00000112   A659               LDR      R6,[R4, R6]
   \   00000114   1E40               ANDS     R6,R6,R3
   \   00000116   B700               LSLS     R7,R6,#+2
   \   00000118   ....               LDR      R6,??DataTable22  ;; Td1
   \   0000011A   F659               LDR      R6,[R6, R7]
   \   0000011C   6746               MOV      R7,R12
   \   0000011E   7E40               EORS     R6,R6,R7
   \   00000120   B446               MOV      R12,R6
   \   00000122   8E68               LDR      R6,[R1, #+8]
   \   00000124   360A               LSRS     R6,R6,#+8
   \   00000126   1E40               ANDS     R6,R6,R3
   \   00000128   B600               LSLS     R6,R6,#+2
   \   0000012A   A659               LDR      R6,[R4, R6]
   \   0000012C   1E40               ANDS     R6,R6,R3
   \   0000012E   B700               LSLS     R7,R6,#+2
   \   00000130   ....               LDR      R6,??DataTable23  ;; Td2
   \   00000132   F659               LDR      R6,[R6, R7]
   \   00000134   6746               MOV      R7,R12
   \   00000136   7E40               EORS     R6,R6,R7
   \   00000138   8F68               LDR      R7,[R1, #+8]
   \   0000013A   1F40               ANDS     R7,R7,R3
   \   0000013C   BF00               LSLS     R7,R7,#+2
   \   0000013E   E759               LDR      R7,[R4, R7]
   \   00000140   1F40               ANDS     R7,R7,R3
   \   00000142   BF00               LSLS     R7,R7,#+2
   \   00000144   D759               LDR      R7,[R2, R7]
   \   00000146   7740               EORS     R7,R7,R6
   \   00000148   8F60               STR      R7,[R1, #+8]
    768          		rk[3] =
    769          			Td0[Te1[(rk[3] >> 24)       ] & 0xff] ^
    770          			Td1[Te1[(rk[3] >> 16) & 0xff] & 0xff] ^
    771          			Td2[Te1[(rk[3] >>  8) & 0xff] & 0xff] ^
    772          			Td3[Te1[(rk[3]      ) & 0xff] & 0xff];
   \   0000014A   CE68               LDR      R6,[R1, #+12]
   \   0000014C   360E               LSRS     R6,R6,#+24
   \   0000014E   B600               LSLS     R6,R6,#+2
   \   00000150   A659               LDR      R6,[R4, R6]
   \   00000152   ....               LDR      R7,??DataTable22  ;; Td1
   \   00000154   1E40               ANDS     R6,R6,R3
   \   00000156   B600               LSLS     R6,R6,#+2
   \   00000158   AE59               LDR      R6,[R5, R6]
   \   0000015A   CD68               LDR      R5,[R1, #+12]
    773          	}
   \   0000015C   401C               ADDS     R0,R0,#+1
   \   0000015E   2D0C               LSRS     R5,R5,#+16
   \   00000160   1D40               ANDS     R5,R5,R3
   \   00000162   AD00               LSLS     R5,R5,#+2
   \   00000164   6559               LDR      R5,[R4, R5]
   \   00000166   1D40               ANDS     R5,R5,R3
   \   00000168   AD00               LSLS     R5,R5,#+2
   \   0000016A   7D59               LDR      R5,[R7, R5]
   \   0000016C   ....               LDR      R7,??DataTable23  ;; Td2
   \   0000016E   7540               EORS     R5,R5,R6
   \   00000170   CE68               LDR      R6,[R1, #+12]
   \   00000172   360A               LSRS     R6,R6,#+8
   \   00000174   1E40               ANDS     R6,R6,R3
   \   00000176   B600               LSLS     R6,R6,#+2
   \   00000178   A659               LDR      R6,[R4, R6]
   \   0000017A   1E40               ANDS     R6,R6,R3
   \   0000017C   B600               LSLS     R6,R6,#+2
   \   0000017E   BE59               LDR      R6,[R7, R6]
   \   00000180   6E40               EORS     R6,R6,R5
   \   00000182   CD68               LDR      R5,[R1, #+12]
   \   00000184   1D40               ANDS     R5,R5,R3
   \   00000186   AD00               LSLS     R5,R5,#+2
   \   00000188   6459               LDR      R4,[R4, R5]
   \   0000018A   2340               ANDS     R3,R3,R4
   \   0000018C   9B00               LSLS     R3,R3,#+2
   \   0000018E   D258               LDR      R2,[R2, R3]
   \   00000190   7240               EORS     R2,R2,R6
   \   00000192   CA60               STR      R2,[R1, #+12]
   \                     ??AES_set_decrypt_key_3:
   \   00000194   009A               LDR      R2,[SP, #+0]
   \   00000196   9042               CMP      R0,R2
   \   00000198   ....               BGE      .+5
   \   0000019A   59E7               B        ??AES_set_decrypt_key_4
    774          	return 0;
   \   0000019C   0020               MOVS     R0,#+0
   \                     ??AES_set_decrypt_key_0:
   \   0000019E   F8BD               POP      {R3-R7,PC}       ;; return
    775          }
    776          
    777          /*
    778           * Encrypt a single block
    779           * in and out can overlap
    780           */

   \                                 In segment CODE, align 4, keep-with-next
    781          void AES_encrypt(const unsigned char *in, unsigned char *out,
    782          		 const AES_KEY *key) {
   \                     AES_encrypt:
   \   00000000   F2B5               PUSH     {R1,R4-R7,LR}
   \   00000002   83B0               SUB      SP,SP,#+12
    783          
    784          	const u32 *rk;
    785          	u32 s0, s1, s2, s3, t0, t1, t2, t3;
    786          #ifndef FULL_UNROLL
    787          	int r;
    788          #endif /* ?FULL_UNROLL */
    789          
    790          	assert(in && out && key);
    791          	rk = key->rd_key;
    792          
    793          	/*
    794          	 * map byte array block to cipher state
    795          	 * and add initial round key:
    796          	 */
    797          	s0 = GETU32(in     ) ^ rk[0];
   \   00000004   0178               LDRB     R1,[R0, #+0]
   \   00000006   4378               LDRB     R3,[R0, #+1]
   \   00000008   0906               LSLS     R1,R1,#+24
   \   0000000A   1B04               LSLS     R3,R3,#+16
   \   0000000C   4B40               EORS     R3,R3,R1
   \   0000000E   8178               LDRB     R1,[R0, #+2]
   \   00000010   1500               MOVS     R5,R2
    798          	s1 = GETU32(in +  4) ^ rk[1];
    799          	s2 = GETU32(in +  8) ^ rk[2];
    800          	s3 = GETU32(in + 12) ^ rk[3];
    801          #ifdef FULL_UNROLL
    802          	/* round 1: */
    803             	t0 = Te0[s0 >> 24] ^ Te1[(s1 >> 16) & 0xff] ^ Te2[(s2 >>  8) & 0xff] ^ Te3[s3 & 0xff] ^ rk[ 4];
    804             	t1 = Te0[s1 >> 24] ^ Te1[(s2 >> 16) & 0xff] ^ Te2[(s3 >>  8) & 0xff] ^ Te3[s0 & 0xff] ^ rk[ 5];
    805             	t2 = Te0[s2 >> 24] ^ Te1[(s3 >> 16) & 0xff] ^ Te2[(s0 >>  8) & 0xff] ^ Te3[s1 & 0xff] ^ rk[ 6];
    806             	t3 = Te0[s3 >> 24] ^ Te1[(s0 >> 16) & 0xff] ^ Te2[(s1 >>  8) & 0xff] ^ Te3[s2 & 0xff] ^ rk[ 7];
    807             	/* round 2: */
    808             	s0 = Te0[t0 >> 24] ^ Te1[(t1 >> 16) & 0xff] ^ Te2[(t2 >>  8) & 0xff] ^ Te3[t3 & 0xff] ^ rk[ 8];
    809             	s1 = Te0[t1 >> 24] ^ Te1[(t2 >> 16) & 0xff] ^ Te2[(t3 >>  8) & 0xff] ^ Te3[t0 & 0xff] ^ rk[ 9];
    810             	s2 = Te0[t2 >> 24] ^ Te1[(t3 >> 16) & 0xff] ^ Te2[(t0 >>  8) & 0xff] ^ Te3[t1 & 0xff] ^ rk[10];
    811             	s3 = Te0[t3 >> 24] ^ Te1[(t0 >> 16) & 0xff] ^ Te2[(t1 >>  8) & 0xff] ^ Te3[t2 & 0xff] ^ rk[11];
    812          	/* round 3: */
    813             	t0 = Te0[s0 >> 24] ^ Te1[(s1 >> 16) & 0xff] ^ Te2[(s2 >>  8) & 0xff] ^ Te3[s3 & 0xff] ^ rk[12];
    814             	t1 = Te0[s1 >> 24] ^ Te1[(s2 >> 16) & 0xff] ^ Te2[(s3 >>  8) & 0xff] ^ Te3[s0 & 0xff] ^ rk[13];
    815             	t2 = Te0[s2 >> 24] ^ Te1[(s3 >> 16) & 0xff] ^ Te2[(s0 >>  8) & 0xff] ^ Te3[s1 & 0xff] ^ rk[14];
    816             	t3 = Te0[s3 >> 24] ^ Te1[(s0 >> 16) & 0xff] ^ Te2[(s1 >>  8) & 0xff] ^ Te3[s2 & 0xff] ^ rk[15];
    817             	/* round 4: */
    818             	s0 = Te0[t0 >> 24] ^ Te1[(t1 >> 16) & 0xff] ^ Te2[(t2 >>  8) & 0xff] ^ Te3[t3 & 0xff] ^ rk[16];
    819             	s1 = Te0[t1 >> 24] ^ Te1[(t2 >> 16) & 0xff] ^ Te2[(t3 >>  8) & 0xff] ^ Te3[t0 & 0xff] ^ rk[17];
    820             	s2 = Te0[t2 >> 24] ^ Te1[(t3 >> 16) & 0xff] ^ Te2[(t0 >>  8) & 0xff] ^ Te3[t1 & 0xff] ^ rk[18];
    821             	s3 = Te0[t3 >> 24] ^ Te1[(t0 >> 16) & 0xff] ^ Te2[(t1 >>  8) & 0xff] ^ Te3[t2 & 0xff] ^ rk[19];
    822          	/* round 5: */
    823             	t0 = Te0[s0 >> 24] ^ Te1[(s1 >> 16) & 0xff] ^ Te2[(s2 >>  8) & 0xff] ^ Te3[s3 & 0xff] ^ rk[20];
    824             	t1 = Te0[s1 >> 24] ^ Te1[(s2 >> 16) & 0xff] ^ Te2[(s3 >>  8) & 0xff] ^ Te3[s0 & 0xff] ^ rk[21];
    825             	t2 = Te0[s2 >> 24] ^ Te1[(s3 >> 16) & 0xff] ^ Te2[(s0 >>  8) & 0xff] ^ Te3[s1 & 0xff] ^ rk[22];
    826             	t3 = Te0[s3 >> 24] ^ Te1[(s0 >> 16) & 0xff] ^ Te2[(s1 >>  8) & 0xff] ^ Te3[s2 & 0xff] ^ rk[23];
    827             	/* round 6: */
    828             	s0 = Te0[t0 >> 24] ^ Te1[(t1 >> 16) & 0xff] ^ Te2[(t2 >>  8) & 0xff] ^ Te3[t3 & 0xff] ^ rk[24];
    829             	s1 = Te0[t1 >> 24] ^ Te1[(t2 >> 16) & 0xff] ^ Te2[(t3 >>  8) & 0xff] ^ Te3[t0 & 0xff] ^ rk[25];
    830             	s2 = Te0[t2 >> 24] ^ Te1[(t3 >> 16) & 0xff] ^ Te2[(t0 >>  8) & 0xff] ^ Te3[t1 & 0xff] ^ rk[26];
    831             	s3 = Te0[t3 >> 24] ^ Te1[(t0 >> 16) & 0xff] ^ Te2[(t1 >>  8) & 0xff] ^ Te3[t2 & 0xff] ^ rk[27];
    832          	/* round 7: */
    833             	t0 = Te0[s0 >> 24] ^ Te1[(s1 >> 16) & 0xff] ^ Te2[(s2 >>  8) & 0xff] ^ Te3[s3 & 0xff] ^ rk[28];
    834             	t1 = Te0[s1 >> 24] ^ Te1[(s2 >> 16) & 0xff] ^ Te2[(s3 >>  8) & 0xff] ^ Te3[s0 & 0xff] ^ rk[29];
    835             	t2 = Te0[s2 >> 24] ^ Te1[(s3 >> 16) & 0xff] ^ Te2[(s0 >>  8) & 0xff] ^ Te3[s1 & 0xff] ^ rk[30];
    836             	t3 = Te0[s3 >> 24] ^ Te1[(s0 >> 16) & 0xff] ^ Te2[(s1 >>  8) & 0xff] ^ Te3[s2 & 0xff] ^ rk[31];
    837             	/* round 8: */
    838             	s0 = Te0[t0 >> 24] ^ Te1[(t1 >> 16) & 0xff] ^ Te2[(t2 >>  8) & 0xff] ^ Te3[t3 & 0xff] ^ rk[32];
    839             	s1 = Te0[t1 >> 24] ^ Te1[(t2 >> 16) & 0xff] ^ Te2[(t3 >>  8) & 0xff] ^ Te3[t0 & 0xff] ^ rk[33];
    840             	s2 = Te0[t2 >> 24] ^ Te1[(t3 >> 16) & 0xff] ^ Te2[(t0 >>  8) & 0xff] ^ Te3[t1 & 0xff] ^ rk[34];
    841             	s3 = Te0[t3 >> 24] ^ Te1[(t0 >> 16) & 0xff] ^ Te2[(t1 >>  8) & 0xff] ^ Te3[t2 & 0xff] ^ rk[35];
    842          	/* round 9: */
    843             	t0 = Te0[s0 >> 24] ^ Te1[(s1 >> 16) & 0xff] ^ Te2[(s2 >>  8) & 0xff] ^ Te3[s3 & 0xff] ^ rk[36];
    844             	t1 = Te0[s1 >> 24] ^ Te1[(s2 >> 16) & 0xff] ^ Te2[(s3 >>  8) & 0xff] ^ Te3[s0 & 0xff] ^ rk[37];
    845             	t2 = Te0[s2 >> 24] ^ Te1[(s3 >> 16) & 0xff] ^ Te2[(s0 >>  8) & 0xff] ^ Te3[s1 & 0xff] ^ rk[38];
    846             	t3 = Te0[s3 >> 24] ^ Te1[(s0 >> 16) & 0xff] ^ Te2[(s1 >>  8) & 0xff] ^ Te3[s2 & 0xff] ^ rk[39];
    847              if (key->rounds > 10) {
    848                  /* round 10: */
    849                  s0 = Te0[t0 >> 24] ^ Te1[(t1 >> 16) & 0xff] ^ Te2[(t2 >>  8) & 0xff] ^ Te3[t3 & 0xff] ^ rk[40];
    850                  s1 = Te0[t1 >> 24] ^ Te1[(t2 >> 16) & 0xff] ^ Te2[(t3 >>  8) & 0xff] ^ Te3[t0 & 0xff] ^ rk[41];
    851                  s2 = Te0[t2 >> 24] ^ Te1[(t3 >> 16) & 0xff] ^ Te2[(t0 >>  8) & 0xff] ^ Te3[t1 & 0xff] ^ rk[42];
    852                  s3 = Te0[t3 >> 24] ^ Te1[(t0 >> 16) & 0xff] ^ Te2[(t1 >>  8) & 0xff] ^ Te3[t2 & 0xff] ^ rk[43];
    853                  /* round 11: */
    854                  t0 = Te0[s0 >> 24] ^ Te1[(s1 >> 16) & 0xff] ^ Te2[(s2 >>  8) & 0xff] ^ Te3[s3 & 0xff] ^ rk[44];
    855                  t1 = Te0[s1 >> 24] ^ Te1[(s2 >> 16) & 0xff] ^ Te2[(s3 >>  8) & 0xff] ^ Te3[s0 & 0xff] ^ rk[45];
    856                  t2 = Te0[s2 >> 24] ^ Te1[(s3 >> 16) & 0xff] ^ Te2[(s0 >>  8) & 0xff] ^ Te3[s1 & 0xff] ^ rk[46];
    857                  t3 = Te0[s3 >> 24] ^ Te1[(s0 >> 16) & 0xff] ^ Te2[(s1 >>  8) & 0xff] ^ Te3[s2 & 0xff] ^ rk[47];
    858                  if (key->rounds > 12) {
    859                      /* round 12: */
    860                      s0 = Te0[t0 >> 24] ^ Te1[(t1 >> 16) & 0xff] ^ Te2[(t2 >>  8) & 0xff] ^ Te3[t3 & 0xff] ^ rk[48];
    861                      s1 = Te0[t1 >> 24] ^ Te1[(t2 >> 16) & 0xff] ^ Te2[(t3 >>  8) & 0xff] ^ Te3[t0 & 0xff] ^ rk[49];
    862                      s2 = Te0[t2 >> 24] ^ Te1[(t3 >> 16) & 0xff] ^ Te2[(t0 >>  8) & 0xff] ^ Te3[t1 & 0xff] ^ rk[50];
    863                      s3 = Te0[t3 >> 24] ^ Te1[(t0 >> 16) & 0xff] ^ Te2[(t1 >>  8) & 0xff] ^ Te3[t2 & 0xff] ^ rk[51];
    864                      /* round 13: */
    865                      t0 = Te0[s0 >> 24] ^ Te1[(s1 >> 16) & 0xff] ^ Te2[(s2 >>  8) & 0xff] ^ Te3[s3 & 0xff] ^ rk[52];
    866                      t1 = Te0[s1 >> 24] ^ Te1[(s2 >> 16) & 0xff] ^ Te2[(s3 >>  8) & 0xff] ^ Te3[s0 & 0xff] ^ rk[53];
    867                      t2 = Te0[s2 >> 24] ^ Te1[(s3 >> 16) & 0xff] ^ Te2[(s0 >>  8) & 0xff] ^ Te3[s1 & 0xff] ^ rk[54];
    868                      t3 = Te0[s3 >> 24] ^ Te1[(s0 >> 16) & 0xff] ^ Te2[(s1 >>  8) & 0xff] ^ Te3[s2 & 0xff] ^ rk[55];
    869                  }
    870              }
    871              rk += key->rounds << 2;
    872          #else  /* !FULL_UNROLL */
    873              /*
    874               * Nr - 1 full rounds:
    875               */
    876              r = key->rounds >> 1;
   \   00000012   F032               ADDS     R2,R2,#+240
   \   00000014   0902               LSLS     R1,R1,#+8
   \   00000016   5940               EORS     R1,R1,R3
   \   00000018   C378               LDRB     R3,[R0, #+3]
   \   0000001A   4B40               EORS     R3,R3,R1
   \   0000001C   2968               LDR      R1,[R5, #+0]
   \   0000001E   5940               EORS     R1,R1,R3
   \   00000020   0191               STR      R1,[SP, #+4]
   \   00000022   0179               LDRB     R1,[R0, #+4]
   \   00000024   4379               LDRB     R3,[R0, #+5]
   \   00000026   0906               LSLS     R1,R1,#+24
   \   00000028   1B04               LSLS     R3,R3,#+16
   \   0000002A   4B40               EORS     R3,R3,R1
   \   0000002C   8179               LDRB     R1,[R0, #+6]
   \   0000002E   0902               LSLS     R1,R1,#+8
   \   00000030   5940               EORS     R1,R1,R3
   \   00000032   C379               LDRB     R3,[R0, #+7]
   \   00000034   4B40               EORS     R3,R3,R1
   \   00000036   6968               LDR      R1,[R5, #+4]
   \   00000038   5940               EORS     R1,R1,R3
   \   0000003A   0091               STR      R1,[SP, #+0]
   \   0000003C   017A               LDRB     R1,[R0, #+8]
   \   0000003E   437A               LDRB     R3,[R0, #+9]
   \   00000040   0906               LSLS     R1,R1,#+24
   \   00000042   AE68               LDR      R6,[R5, #+8]
   \   00000044   EC68               LDR      R4,[R5, #+12]
   \   00000046   1B04               LSLS     R3,R3,#+16
   \   00000048   4B40               EORS     R3,R3,R1
   \   0000004A   817A               LDRB     R1,[R0, #+10]
   \   0000004C   0902               LSLS     R1,R1,#+8
   \   0000004E   5940               EORS     R1,R1,R3
   \   00000050   C37A               LDRB     R3,[R0, #+11]
   \   00000052   4B40               EORS     R3,R3,R1
   \   00000054   017B               LDRB     R1,[R0, #+12]
   \   00000056   5E40               EORS     R6,R6,R3
   \   00000058   437B               LDRB     R3,[R0, #+13]
   \   0000005A   0906               LSLS     R1,R1,#+24
   \   0000005C   1B04               LSLS     R3,R3,#+16
   \   0000005E   4B40               EORS     R3,R3,R1
   \   00000060   817B               LDRB     R1,[R0, #+14]
   \   00000062   C07B               LDRB     R0,[R0, #+15]
   \   00000064   0902               LSLS     R1,R1,#+8
   \   00000066   5940               EORS     R1,R1,R3
   \   00000068   4840               EORS     R0,R0,R1
   \   0000006A   4440               EORS     R4,R4,R0
   \   0000006C   1068               LDR      R0,[R2, #+0]
   \   0000006E   4010               ASRS     R0,R0,#+1
   \   00000070   0290               STR      R0,[SP, #+8]
   \   00000072   FF20               MOVS     R0,#+255
   \   00000074   73E0               B        ??AES_encrypt_0
    877              for (;;) {
    878                  t0 =
    879                      Te0[(s0 >> 24)       ] ^
    880                      Te1[(s1 >> 16) & 0xff] ^
    881                      Te2[(s2 >>  8) & 0xff] ^
    882                      Te3[(s3      ) & 0xff] ^
    883                      rk[4];
    884                  t1 =
    885                      Te0[(s1 >> 24)       ] ^
    886                      Te1[(s2 >> 16) & 0xff] ^
    887                      Te2[(s3 >>  8) & 0xff] ^
    888                      Te3[(s0      ) & 0xff] ^
    889                      rk[5];
    890                  t2 =
    891                      Te0[(s2 >> 24)       ] ^
    892                      Te1[(s3 >> 16) & 0xff] ^
    893                      Te2[(s0 >>  8) & 0xff] ^
    894                      Te3[(s1      ) & 0xff] ^
    895                      rk[6];
    896                  t3 =
    897                      Te0[(s3 >> 24)       ] ^
    898                      Te1[(s0 >> 16) & 0xff] ^
    899                      Te2[(s1 >>  8) & 0xff] ^
    900                      Te3[(s2      ) & 0xff] ^
    901                      rk[7];
    902          
    903                  rk += 8;
    904                  if (--r == 0) {
    905                      break;
    906                  }
    907          
    908                  s0 =
    909                      Te0[(t0 >> 24)       ] ^
    910                      Te1[(t1 >> 16) & 0xff] ^
    911                      Te2[(t2 >>  8) & 0xff] ^
    912                      Te3[(t3      ) & 0xff] ^
    913                      rk[0];
   \                     ??AES_encrypt_1:
   \   00000076   ....               LDR      R7,??DataTable52  ;; Te0
   \   00000078   0E0E               LSRS     R6,R1,#+24
   \   0000007A   B600               LSLS     R6,R6,#+2
   \   0000007C   BF59               LDR      R7,[R7, R6]
   \   0000007E   160C               LSRS     R6,R2,#+16
   \   00000080   BC46               MOV      R12,R7
   \   00000082   0640               ANDS     R6,R6,R0
   \   00000084   B700               LSLS     R7,R6,#+2
   \   00000086   ....               LDR      R6,??DataTable59  ;; Te1
   \   00000088   F659               LDR      R6,[R6, R7]
   \   0000008A   6746               MOV      R7,R12
   \   0000008C   7E40               EORS     R6,R6,R7
   \   0000008E   B446               MOV      R12,R6
   \   00000090   1E0A               LSRS     R6,R3,#+8
   \   00000092   0640               ANDS     R6,R6,R0
   \   00000094   B700               LSLS     R7,R6,#+2
   \   00000096   ....               LDR      R6,??DataTable64  ;; Te2
   \   00000098   F659               LDR      R6,[R6, R7]
   \   0000009A   6746               MOV      R7,R12
   \   0000009C   7E40               EORS     R6,R6,R7
   \   0000009E   B446               MOV      R12,R6
   \   000000A0   FF26               MOVS     R6,#+255
   \   000000A2   2640               ANDS     R6,R6,R4
   \   000000A4   B700               LSLS     R7,R6,#+2
   \   000000A6   ....               LDR      R6,??DataTable69  ;; Te3
   \   000000A8   F659               LDR      R6,[R6, R7]
   \   000000AA   6746               MOV      R7,R12
   \   000000AC   7E40               EORS     R6,R6,R7
   \   000000AE   2F68               LDR      R7,[R5, #+0]
   \   000000B0   7740               EORS     R7,R7,R6
   \   000000B2   0197               STR      R7,[SP, #+4]
    914                  s1 =
    915                      Te0[(t1 >> 24)       ] ^
    916                      Te1[(t2 >> 16) & 0xff] ^
    917                      Te2[(t3 >>  8) & 0xff] ^
    918                      Te3[(t0      ) & 0xff] ^
    919                      rk[1];
   \   000000B4   ....               LDR      R7,??DataTable52  ;; Te0
   \   000000B6   160E               LSRS     R6,R2,#+24
   \   000000B8   B600               LSLS     R6,R6,#+2
   \   000000BA   BF59               LDR      R7,[R7, R6]
   \   000000BC   1E0C               LSRS     R6,R3,#+16
   \   000000BE   BC46               MOV      R12,R7
   \   000000C0   0640               ANDS     R6,R6,R0
   \   000000C2   B700               LSLS     R7,R6,#+2
   \   000000C4   ....               LDR      R6,??DataTable59  ;; Te1
   \   000000C6   F659               LDR      R6,[R6, R7]
   \   000000C8   6746               MOV      R7,R12
   \   000000CA   7E40               EORS     R6,R6,R7
   \   000000CC   B446               MOV      R12,R6
   \   000000CE   260A               LSRS     R6,R4,#+8
   \   000000D0   0640               ANDS     R6,R6,R0
   \   000000D2   B700               LSLS     R7,R6,#+2
   \   000000D4   ....               LDR      R6,??DataTable64  ;; Te2
   \   000000D6   F659               LDR      R6,[R6, R7]
   \   000000D8   6746               MOV      R7,R12
   \   000000DA   7E40               EORS     R6,R6,R7
   \   000000DC   B446               MOV      R12,R6
   \   000000DE   0600               MOVS     R6,R0
   \   000000E0   0E40               ANDS     R6,R6,R1
   \   000000E2   B700               LSLS     R7,R6,#+2
   \   000000E4   ....               LDR      R6,??DataTable69  ;; Te3
   \   000000E6   F659               LDR      R6,[R6, R7]
   \   000000E8   6746               MOV      R7,R12
   \   000000EA   7E40               EORS     R6,R6,R7
   \   000000EC   6F68               LDR      R7,[R5, #+4]
   \   000000EE   7740               EORS     R7,R7,R6
   \   000000F0   0097               STR      R7,[SP, #+0]
    920                  s2 =
    921                      Te0[(t2 >> 24)       ] ^
    922                      Te1[(t3 >> 16) & 0xff] ^
    923                      Te2[(t0 >>  8) & 0xff] ^
    924                      Te3[(t1      ) & 0xff] ^
    925                      rk[2];
   \   000000F2   ....               LDR      R7,??DataTable52  ;; Te0
   \   000000F4   1E0E               LSRS     R6,R3,#+24
   \   000000F6   B600               LSLS     R6,R6,#+2
   \   000000F8   BF59               LDR      R7,[R7, R6]
   \   000000FA   260C               LSRS     R6,R4,#+16
   \   000000FC   BC46               MOV      R12,R7
   \   000000FE   0640               ANDS     R6,R6,R0
   \   00000100   B700               LSLS     R7,R6,#+2
   \   00000102   ....               LDR      R6,??DataTable59  ;; Te1
    926                  s3 =
    927                      Te0[(t3 >> 24)       ] ^
    928                      Te1[(t0 >> 16) & 0xff] ^
    929                      Te2[(t1 >>  8) & 0xff] ^
    930                      Te3[(t2      ) & 0xff] ^
    931                      rk[3];
   \   00000104   240E               LSRS     R4,R4,#+24
   \   00000106   F659               LDR      R6,[R6, R7]
   \   00000108   6746               MOV      R7,R12
   \   0000010A   7E40               EORS     R6,R6,R7
   \   0000010C   B446               MOV      R12,R6
   \   0000010E   0E0A               LSRS     R6,R1,#+8
   \   00000110   0640               ANDS     R6,R6,R0
   \   00000112   B700               LSLS     R7,R6,#+2
   \   00000114   ....               LDR      R6,??DataTable64  ;; Te2
   \   00000116   A400               LSLS     R4,R4,#+2
   \   00000118   F659               LDR      R6,[R6, R7]
   \   0000011A   6746               MOV      R7,R12
   \   0000011C   7E40               EORS     R6,R6,R7
   \   0000011E   B446               MOV      R12,R6
   \   00000120   0600               MOVS     R6,R0
   \   00000122   1640               ANDS     R6,R6,R2
   \   00000124   B700               LSLS     R7,R6,#+2
   \   00000126   ....               LDR      R6,??DataTable69  ;; Te3
   \   00000128   090C               LSRS     R1,R1,#+16
   \   0000012A   F659               LDR      R6,[R6, R7]
   \   0000012C   6746               MOV      R7,R12
   \   0000012E   7E40               EORS     R6,R6,R7
   \   00000130   3700               MOVS     R7,R6
   \   00000132   AE68               LDR      R6,[R5, #+8]
   \   00000134   0140               ANDS     R1,R1,R0
   \   00000136   7E40               EORS     R6,R6,R7
   \   00000138   ....               LDR      R7,??DataTable52  ;; Te0
   \   0000013A   8900               LSLS     R1,R1,#+2
   \   0000013C   3C59               LDR      R4,[R7, R4]
   \   0000013E   ....               LDR      R7,??DataTable59  ;; Te1
   \   00000140   120A               LSRS     R2,R2,#+8
   \   00000142   7958               LDR      R1,[R7, R1]
   \   00000144   0240               ANDS     R2,R2,R0
   \   00000146   6140               EORS     R1,R1,R4
   \   00000148   ....               LDR      R4,??DataTable64  ;; Te2
   \   0000014A   9200               LSLS     R2,R2,#+2
   \   0000014C   A258               LDR      R2,[R4, R2]
   \   0000014E   EC68               LDR      R4,[R5, #+12]
   \   00000150   4A40               EORS     R2,R2,R1
   \   00000152   0340               ANDS     R3,R3,R0
   \   00000154   9900               LSLS     R1,R3,#+2
   \   00000156   ....               LDR      R3,??DataTable69  ;; Te3
   \   00000158   5958               LDR      R1,[R3, R1]
   \   0000015A   5140               EORS     R1,R1,R2
   \   0000015C   4C40               EORS     R4,R4,R1
   \                     ??AES_encrypt_0:
   \   0000015E   0199               LDR      R1,[SP, #+4]
   \   00000160   ....               LDR      R2,??DataTable52  ;; Te0
   \   00000162   ....               LDR      R3,??DataTable59  ;; Te1
   \   00000164   ....               LDR      R7,??DataTable59  ;; Te1
   \   00000166   090E               LSRS     R1,R1,#+24
   \   00000168   8900               LSLS     R1,R1,#+2
   \   0000016A   5158               LDR      R1,[R2, R1]
   \   0000016C   009A               LDR      R2,[SP, #+0]
   \   0000016E   120C               LSRS     R2,R2,#+16
   \   00000170   0240               ANDS     R2,R2,R0
   \   00000172   9200               LSLS     R2,R2,#+2
   \   00000174   9A58               LDR      R2,[R3, R2]
   \   00000176   ....               LDR      R3,??DataTable64  ;; Te2
   \   00000178   4A40               EORS     R2,R2,R1
   \   0000017A   310A               LSRS     R1,R6,#+8
   \   0000017C   0140               ANDS     R1,R1,R0
   \   0000017E   8900               LSLS     R1,R1,#+2
   \   00000180   5958               LDR      R1,[R3, R1]
   \   00000182   ....               LDR      R3,??DataTable69  ;; Te3
   \   00000184   5140               EORS     R1,R1,R2
   \   00000186   FF22               MOVS     R2,#+255
   \   00000188   2240               ANDS     R2,R2,R4
   \   0000018A   9200               LSLS     R2,R2,#+2
   \   0000018C   9A58               LDR      R2,[R3, R2]
   \   0000018E   ....               LDR      R3,??DataTable52  ;; Te0
   \   00000190   4A40               EORS     R2,R2,R1
   \   00000192   2969               LDR      R1,[R5, #+16]
   \   00000194   5140               EORS     R1,R1,R2
   \   00000196   009A               LDR      R2,[SP, #+0]
   \   00000198   120E               LSRS     R2,R2,#+24
   \   0000019A   9200               LSLS     R2,R2,#+2
   \   0000019C   9B58               LDR      R3,[R3, R2]
   \   0000019E   320C               LSRS     R2,R6,#+16
   \   000001A0   0240               ANDS     R2,R2,R0
   \   000001A2   9200               LSLS     R2,R2,#+2
   \   000001A4   BA58               LDR      R2,[R7, R2]
   \   000001A6   ....               LDR      R7,??DataTable64  ;; Te2
   \   000001A8   5A40               EORS     R2,R2,R3
   \   000001AA   230A               LSRS     R3,R4,#+8
   \   000001AC   0340               ANDS     R3,R3,R0
   \   000001AE   9B00               LSLS     R3,R3,#+2
   \   000001B0   FB58               LDR      R3,[R7, R3]
   \   000001B2   ....               LDR      R7,??DataTable69  ;; Te3
   \   000001B4   5340               EORS     R3,R3,R2
   \   000001B6   019A               LDR      R2,[SP, #+4]
   \   000001B8   0240               ANDS     R2,R2,R0
   \   000001BA   9200               LSLS     R2,R2,#+2
   \   000001BC   BF58               LDR      R7,[R7, R2]
   \   000001BE   6A69               LDR      R2,[R5, #+20]
   \   000001C0   5F40               EORS     R7,R7,R3
   \   000001C2   7A40               EORS     R2,R2,R7
   \   000001C4   ....               LDR      R7,??DataTable52  ;; Te0
   \   000001C6   330E               LSRS     R3,R6,#+24
   \   000001C8   9B00               LSLS     R3,R3,#+2
   \   000001CA   FF58               LDR      R7,[R7, R3]
   \   000001CC   230C               LSRS     R3,R4,#+16
   \   000001CE   BC46               MOV      R12,R7
   \   000001D0   0340               ANDS     R3,R3,R0
   \   000001D2   9F00               LSLS     R7,R3,#+2
   \   000001D4   ....               LDR      R3,??DataTable59  ;; Te1
   \   000001D6   240E               LSRS     R4,R4,#+24
   \   000001D8   DB59               LDR      R3,[R3, R7]
   \   000001DA   6746               MOV      R7,R12
   \   000001DC   7B40               EORS     R3,R3,R7
   \   000001DE   9C46               MOV      R12,R3
   \   000001E0   019B               LDR      R3,[SP, #+4]
   \   000001E2   A400               LSLS     R4,R4,#+2
   \   000001E4   1B0A               LSRS     R3,R3,#+8
   \   000001E6   0340               ANDS     R3,R3,R0
   \   000001E8   9F00               LSLS     R7,R3,#+2
   \   000001EA   ....               LDR      R3,??DataTable64  ;; Te2
   \   000001EC   0640               ANDS     R6,R6,R0
   \   000001EE   DB59               LDR      R3,[R3, R7]
   \   000001F0   6746               MOV      R7,R12
   \   000001F2   7B40               EORS     R3,R3,R7
   \   000001F4   9C46               MOV      R12,R3
   \   000001F6   009B               LDR      R3,[SP, #+0]
   \   000001F8   B600               LSLS     R6,R6,#+2
   \   000001FA   0340               ANDS     R3,R3,R0
   \   000001FC   9F00               LSLS     R7,R3,#+2
   \   000001FE   ....               LDR      R3,??DataTable69  ;; Te3
   \   00000200   DB59               LDR      R3,[R3, R7]
   \   00000202   6746               MOV      R7,R12
   \   00000204   7B40               EORS     R3,R3,R7
   \   00000206   1F00               MOVS     R7,R3
   \   00000208   AB69               LDR      R3,[R5, #+24]
   \   0000020A   7B40               EORS     R3,R3,R7
   \   0000020C   ....               LDR      R7,??DataTable52  ;; Te0
   \   0000020E   3F59               LDR      R7,[R7, R4]
   \   00000210   019C               LDR      R4,[SP, #+4]
   \   00000212   BC46               MOV      R12,R7
   \   00000214   240C               LSRS     R4,R4,#+16
   \   00000216   0440               ANDS     R4,R4,R0
   \   00000218   A700               LSLS     R7,R4,#+2
   \   0000021A   ....               LDR      R4,??DataTable59  ;; Te1
   \   0000021C   E459               LDR      R4,[R4, R7]
   \   0000021E   6746               MOV      R7,R12
   \   00000220   7C40               EORS     R4,R4,R7
   \   00000222   A446               MOV      R12,R4
   \   00000224   009C               LDR      R4,[SP, #+0]
   \   00000226   240A               LSRS     R4,R4,#+8
   \   00000228   0440               ANDS     R4,R4,R0
   \   0000022A   A700               LSLS     R7,R4,#+2
   \   0000022C   ....               LDR      R4,??DataTable64  ;; Te2
   \   0000022E   E459               LDR      R4,[R4, R7]
   \   00000230   6746               MOV      R7,R12
   \   00000232   7C40               EORS     R4,R4,R7
   \   00000234   ....               LDR      R7,??DataTable69  ;; Te3
   \   00000236   BE59               LDR      R6,[R7, R6]
   \   00000238   6640               EORS     R6,R6,R4
   \   0000023A   EC69               LDR      R4,[R5, #+28]
   \   0000023C   2035               ADDS     R5,R5,#+32
   \   0000023E   7440               EORS     R4,R4,R6
   \   00000240   029E               LDR      R6,[SP, #+8]
   \   00000242   761E               SUBS     R6,R6,#+1
   \   00000244   0296               STR      R6,[SP, #+8]
   \   00000246   ....               BEQ      .+5
   \   00000248   15E7               B        ??AES_encrypt_1
   \   0000024A   ....               LDR      R7,??DataTable64  ;; Te2
   \   0000024C   0E0E               LSRS     R6,R1,#+24
   \   0000024E   B600               LSLS     R6,R6,#+2
   \   00000250   BE59               LDR      R6,[R7, R6]
   \   00000252   370E               LSRS     R7,R6,#+24
   \   00000254   3F06               LSLS     R7,R7,#+24
   \   00000256   BC46               MOV      R12,R7
   \   00000258   160C               LSRS     R6,R2,#+16
   \   0000025A   0640               ANDS     R6,R6,R0
   \   0000025C   B700               LSLS     R7,R6,#+2
   \   0000025E   ....               LDR      R6,??DataTable69  ;; Te3
   \   00000260   F759               LDR      R7,[R6, R7]
   \   00000262   0604               LSLS     R6,R0,#+16
   \   00000264   3E40               ANDS     R6,R6,R7
   \   00000266   6746               MOV      R7,R12
   \   00000268   7E40               EORS     R6,R6,R7
   \   0000026A   B446               MOV      R12,R6
   \   0000026C   1E0A               LSRS     R6,R3,#+8
   \   0000026E   0640               ANDS     R6,R6,R0
   \   00000270   B700               LSLS     R7,R6,#+2
   \   00000272   ....               LDR      R6,??DataTable52  ;; Te0
   \   00000274   F759               LDR      R7,[R6, R7]
   \   00000276   0602               LSLS     R6,R0,#+8
   \   00000278   3E40               ANDS     R6,R6,R7
   \   0000027A   6746               MOV      R7,R12
   \   0000027C   7E40               EORS     R6,R6,R7
   \   0000027E   B446               MOV      R12,R6
   \   00000280   FF26               MOVS     R6,#+255
   \   00000282   2640               ANDS     R6,R6,R4
   \   00000284   B700               LSLS     R7,R6,#+2
   \   00000286   ....               LDR      R6,??DataTable59  ;; Te1
   \   00000288   F659               LDR      R6,[R6, R7]
   \   0000028A   6746               MOV      R7,R12
   \   0000028C   0640               ANDS     R6,R6,R0
   \   0000028E   7E40               EORS     R6,R6,R7
   \   00000290   2F68               LDR      R7,[R5, #+0]
   \   00000292   7740               EORS     R7,R7,R6
    932              }
    933          #endif /* ?FULL_UNROLL */
    934              /*
    935          	 * apply last round and
    936          	 * map cipher state to byte array block:
    937          	 */
    938          	s0 =
    939          		(Te2[(t0 >> 24)       ] & 0xff000000) ^
    940          		(Te3[(t1 >> 16) & 0xff] & 0x00ff0000) ^
    941          		(Te0[(t2 >>  8) & 0xff] & 0x0000ff00) ^
    942          		(Te1[(t3      ) & 0xff] & 0x000000ff) ^
    943          		rk[0];
    944          	PUTU32(out     , s0);
   \   00000294   039E               LDR      R6,[SP, #+12]
   \   00000296   0097               STR      R7,[SP, #+0]
   \   00000298   009F               LDR      R7,[SP, #+0]
   \   0000029A   3F0E               LSRS     R7,R7,#+24
   \   0000029C   3770               STRB     R7,[R6, #+0]
   \   0000029E   039E               LDR      R6,[SP, #+12]
   \   000002A0   009F               LDR      R7,[SP, #+0]
   \   000002A2   3F0C               LSRS     R7,R7,#+16
   \   000002A4   7770               STRB     R7,[R6, #+1]
   \   000002A6   039E               LDR      R6,[SP, #+12]
   \   000002A8   009F               LDR      R7,[SP, #+0]
   \   000002AA   3F0A               LSRS     R7,R7,#+8
   \   000002AC   B770               STRB     R7,[R6, #+2]
   \   000002AE   039E               LDR      R6,[SP, #+12]
   \   000002B0   009F               LDR      R7,[SP, #+0]
   \   000002B2   F770               STRB     R7,[R6, #+3]
    945          	s1 =
    946          		(Te2[(t1 >> 24)       ] & 0xff000000) ^
    947          		(Te3[(t2 >> 16) & 0xff] & 0x00ff0000) ^
    948          		(Te0[(t3 >>  8) & 0xff] & 0x0000ff00) ^
    949          		(Te1[(t0      ) & 0xff] & 0x000000ff) ^
    950          		rk[1];
   \   000002B4   ....               LDR      R7,??DataTable64  ;; Te2
   \   000002B6   160E               LSRS     R6,R2,#+24
   \   000002B8   B600               LSLS     R6,R6,#+2
   \   000002BA   BE59               LDR      R6,[R7, R6]
   \   000002BC   370E               LSRS     R7,R6,#+24
   \   000002BE   3F06               LSLS     R7,R7,#+24
   \   000002C0   BC46               MOV      R12,R7
   \   000002C2   1E0C               LSRS     R6,R3,#+16
   \   000002C4   0640               ANDS     R6,R6,R0
   \   000002C6   B700               LSLS     R7,R6,#+2
   \   000002C8   ....               LDR      R6,??DataTable69  ;; Te3
   \   000002CA   F759               LDR      R7,[R6, R7]
   \   000002CC   0604               LSLS     R6,R0,#+16
   \   000002CE   3E40               ANDS     R6,R6,R7
   \   000002D0   6746               MOV      R7,R12
   \   000002D2   7E40               EORS     R6,R6,R7
   \   000002D4   B446               MOV      R12,R6
   \   000002D6   260A               LSRS     R6,R4,#+8
   \   000002D8   0640               ANDS     R6,R6,R0
   \   000002DA   B700               LSLS     R7,R6,#+2
   \   000002DC   ....               LDR      R6,??DataTable52  ;; Te0
   \   000002DE   F759               LDR      R7,[R6, R7]
   \   000002E0   0602               LSLS     R6,R0,#+8
   \   000002E2   3E40               ANDS     R6,R6,R7
   \   000002E4   6746               MOV      R7,R12
   \   000002E6   7E40               EORS     R6,R6,R7
   \   000002E8   B446               MOV      R12,R6
   \   000002EA   0600               MOVS     R6,R0
   \   000002EC   0E40               ANDS     R6,R6,R1
   \   000002EE   B700               LSLS     R7,R6,#+2
   \   000002F0   ....               LDR      R6,??DataTable59  ;; Te1
   \   000002F2   F659               LDR      R6,[R6, R7]
   \   000002F4   6746               MOV      R7,R12
   \   000002F6   0640               ANDS     R6,R6,R0
   \   000002F8   7E40               EORS     R6,R6,R7
   \   000002FA   6F68               LDR      R7,[R5, #+4]
   \   000002FC   7740               EORS     R7,R7,R6
    951          	PUTU32(out +  4, s1);
   \   000002FE   039E               LDR      R6,[SP, #+12]
   \   00000300   0097               STR      R7,[SP, #+0]
   \   00000302   009F               LDR      R7,[SP, #+0]
   \   00000304   3F0E               LSRS     R7,R7,#+24
   \   00000306   3771               STRB     R7,[R6, #+4]
   \   00000308   039E               LDR      R6,[SP, #+12]
   \   0000030A   009F               LDR      R7,[SP, #+0]
   \   0000030C   3F0C               LSRS     R7,R7,#+16
   \   0000030E   7771               STRB     R7,[R6, #+5]
   \   00000310   039E               LDR      R6,[SP, #+12]
   \   00000312   009F               LDR      R7,[SP, #+0]
   \   00000314   3F0A               LSRS     R7,R7,#+8
   \   00000316   B771               STRB     R7,[R6, #+6]
   \   00000318   039E               LDR      R6,[SP, #+12]
   \   0000031A   009F               LDR      R7,[SP, #+0]
   \   0000031C   F771               STRB     R7,[R6, #+7]
    952          	s2 =
    953          		(Te2[(t2 >> 24)       ] & 0xff000000) ^
    954          		(Te3[(t3 >> 16) & 0xff] & 0x00ff0000) ^
    955          		(Te0[(t0 >>  8) & 0xff] & 0x0000ff00) ^
    956          		(Te1[(t1      ) & 0xff] & 0x000000ff) ^
    957          		rk[2];
   \   0000031E   ....               LDR      R7,??DataTable64  ;; Te2
   \   00000320   1E0E               LSRS     R6,R3,#+24
   \   00000322   B600               LSLS     R6,R6,#+2
   \   00000324   BE59               LDR      R6,[R7, R6]
   \   00000326   370E               LSRS     R7,R6,#+24
   \   00000328   3F06               LSLS     R7,R7,#+24
   \   0000032A   BC46               MOV      R12,R7
   \   0000032C   260C               LSRS     R6,R4,#+16
   \   0000032E   0640               ANDS     R6,R6,R0
   \   00000330   B700               LSLS     R7,R6,#+2
   \   00000332   ....               LDR      R6,??DataTable69  ;; Te3
   \   00000334   F759               LDR      R7,[R6, R7]
   \   00000336   0604               LSLS     R6,R0,#+16
   \   00000338   3E40               ANDS     R6,R6,R7
   \   0000033A   6746               MOV      R7,R12
   \   0000033C   7E40               EORS     R6,R6,R7
   \   0000033E   B446               MOV      R12,R6
   \   00000340   0E0A               LSRS     R6,R1,#+8
   \   00000342   0640               ANDS     R6,R6,R0
   \   00000344   B700               LSLS     R7,R6,#+2
   \   00000346   ....               LDR      R6,??DataTable52  ;; Te0
   \   00000348   F759               LDR      R7,[R6, R7]
   \   0000034A   0602               LSLS     R6,R0,#+8
   \   0000034C   3E40               ANDS     R6,R6,R7
   \   0000034E   6746               MOV      R7,R12
   \   00000350   7E40               EORS     R6,R6,R7
   \   00000352   B446               MOV      R12,R6
   \   00000354   0600               MOVS     R6,R0
   \   00000356   1640               ANDS     R6,R6,R2
   \   00000358   B700               LSLS     R7,R6,#+2
   \   0000035A   ....               LDR      R6,??DataTable59  ;; Te1
    958          	PUTU32(out +  8, s2);
    959          	s3 =
    960          		(Te2[(t3 >> 24)       ] & 0xff000000) ^
    961          		(Te3[(t0 >> 16) & 0xff] & 0x00ff0000) ^
    962          		(Te0[(t1 >>  8) & 0xff] & 0x0000ff00) ^
    963          		(Te1[(t2      ) & 0xff] & 0x000000ff) ^
    964          		rk[3];
   \   0000035C   240E               LSRS     R4,R4,#+24
   \   0000035E   F659               LDR      R6,[R6, R7]
   \   00000360   6746               MOV      R7,R12
   \   00000362   0640               ANDS     R6,R6,R0
   \   00000364   7E40               EORS     R6,R6,R7
   \   00000366   AF68               LDR      R7,[R5, #+8]
   \   00000368   A400               LSLS     R4,R4,#+2
   \   0000036A   7740               EORS     R7,R7,R6
   \   0000036C   039E               LDR      R6,[SP, #+12]
   \   0000036E   0097               STR      R7,[SP, #+0]
   \   00000370   009F               LDR      R7,[SP, #+0]
   \   00000372   090C               LSRS     R1,R1,#+16
   \   00000374   3F0E               LSRS     R7,R7,#+24
   \   00000376   3772               STRB     R7,[R6, #+8]
   \   00000378   039E               LDR      R6,[SP, #+12]
   \   0000037A   009F               LDR      R7,[SP, #+0]
   \   0000037C   0140               ANDS     R1,R1,R0
   \   0000037E   3F0C               LSRS     R7,R7,#+16
   \   00000380   7772               STRB     R7,[R6, #+9]
   \   00000382   039E               LDR      R6,[SP, #+12]
   \   00000384   009F               LDR      R7,[SP, #+0]
   \   00000386   8900               LSLS     R1,R1,#+2
   \   00000388   3F0A               LSRS     R7,R7,#+8
   \   0000038A   B772               STRB     R7,[R6, #+10]
   \   0000038C   039E               LDR      R6,[SP, #+12]
   \   0000038E   009F               LDR      R7,[SP, #+0]
   \   00000390   120A               LSRS     R2,R2,#+8
   \   00000392   F772               STRB     R7,[R6, #+11]
   \   00000394   ....               LDR      R6,??DataTable64  ;; Te2
   \   00000396   0240               ANDS     R2,R2,R0
   \   00000398   3459               LDR      R4,[R6, R4]
   \   0000039A   ....               LDR      R6,??DataTable69  ;; Te3
   \   0000039C   240E               LSRS     R4,R4,#+24
   \   0000039E   7658               LDR      R6,[R6, R1]
   \   000003A0   2406               LSLS     R4,R4,#+24
   \   000003A2   0104               LSLS     R1,R0,#+16
   \   000003A4   3140               ANDS     R1,R1,R6
   \   000003A6   6140               EORS     R1,R1,R4
   \   000003A8   ....               LDR      R4,??DataTable52  ;; Te0
   \   000003AA   9200               LSLS     R2,R2,#+2
   \   000003AC   A458               LDR      R4,[R4, R2]
   \   000003AE   0202               LSLS     R2,R0,#+8
   \   000003B0   2240               ANDS     R2,R2,R4
   \   000003B2   4A40               EORS     R2,R2,R1
   \   000003B4   0340               ANDS     R3,R3,R0
   \   000003B6   9900               LSLS     R1,R3,#+2
   \   000003B8   ....               LDR      R3,??DataTable59  ;; Te1
   \   000003BA   5958               LDR      R1,[R3, R1]
   \   000003BC   0840               ANDS     R0,R0,R1
   \   000003BE   E968               LDR      R1,[R5, #+12]
   \   000003C0   5040               EORS     R0,R0,R2
   \   000003C2   4140               EORS     R1,R1,R0
    965          	PUTU32(out + 12, s3);
   \   000003C4   0398               LDR      R0,[SP, #+12]
   \   000003C6   0A0E               LSRS     R2,R1,#+24
   \   000003C8   0273               STRB     R2,[R0, #+12]
   \   000003CA   0398               LDR      R0,[SP, #+12]
   \   000003CC   0A0C               LSRS     R2,R1,#+16
   \   000003CE   4273               STRB     R2,[R0, #+13]
   \   000003D0   0398               LDR      R0,[SP, #+12]
   \   000003D2   0A0A               LSRS     R2,R1,#+8
   \   000003D4   8273               STRB     R2,[R0, #+14]
   \   000003D6   0398               LDR      R0,[SP, #+12]
   \   000003D8   C173               STRB     R1,[R0, #+15]
    966          }
   \   000003DA   FFBD               POP      {R0-R7,PC}       ;; return
    967          
    968          /*
    969           * Decrypt a single block
    970           * in and out can overlap
    971           */

   \                                 In segment CODE, align 4, keep-with-next
    972          void AES_decrypt(const unsigned char *in, unsigned char *out,
    973          		 const AES_KEY *key) {
   \                     AES_decrypt:
   \   00000000   F2B5               PUSH     {R1,R4-R7,LR}
   \   00000002   83B0               SUB      SP,SP,#+12
   \   00000004   1100               MOVS     R1,R2
    974          
    975          	const u32 *rk;
    976          	u32 s0, s1, s2, s3, t0, t1, t2, t3;
    977          #ifndef FULL_UNROLL
    978          	int r;
    979          #endif /* ?FULL_UNROLL */
    980          
    981          	assert(in && out && key);
    982          	rk = key->rd_key;
   \   00000006   0191               STR      R1,[SP, #+4]
    983          
    984          	/*
    985          	 * map byte array block to cipher state
    986          	 * and add initial round key:
    987          	 */
    988              s0 = GETU32(in     ) ^ rk[0];
   \   00000008   0278               LDRB     R2,[R0, #+0]
   \   0000000A   4378               LDRB     R3,[R0, #+1]
   \   0000000C   1206               LSLS     R2,R2,#+24
   \   0000000E   0D68               LDR      R5,[R1, #+0]
   \   00000010   1B04               LSLS     R3,R3,#+16
   \   00000012   5340               EORS     R3,R3,R2
   \   00000014   8278               LDRB     R2,[R0, #+2]
   \   00000016   1202               LSLS     R2,R2,#+8
   \   00000018   5A40               EORS     R2,R2,R3
   \   0000001A   C378               LDRB     R3,[R0, #+3]
   \   0000001C   5340               EORS     R3,R3,R2
    989              s1 = GETU32(in +  4) ^ rk[1];
   \   0000001E   0279               LDRB     R2,[R0, #+4]
   \   00000020   5D40               EORS     R5,R5,R3
   \   00000022   4379               LDRB     R3,[R0, #+5]
   \   00000024   1206               LSLS     R2,R2,#+24
   \   00000026   1B04               LSLS     R3,R3,#+16
   \   00000028   5340               EORS     R3,R3,R2
   \   0000002A   8279               LDRB     R2,[R0, #+6]
   \   0000002C   1202               LSLS     R2,R2,#+8
   \   0000002E   5A40               EORS     R2,R2,R3
   \   00000030   C379               LDRB     R3,[R0, #+7]
   \   00000032   5340               EORS     R3,R3,R2
   \   00000034   4A68               LDR      R2,[R1, #+4]
   \   00000036   5A40               EORS     R2,R2,R3
   \   00000038   0092               STR      R2,[SP, #+0]
    990              s2 = GETU32(in +  8) ^ rk[2];
   \   0000003A   027A               LDRB     R2,[R0, #+8]
   \   0000003C   437A               LDRB     R3,[R0, #+9]
   \   0000003E   1206               LSLS     R2,R2,#+24
   \   00000040   8F68               LDR      R7,[R1, #+8]
   \   00000042   1B04               LSLS     R3,R3,#+16
   \   00000044   5340               EORS     R3,R3,R2
   \   00000046   827A               LDRB     R2,[R0, #+10]
   \   00000048   1202               LSLS     R2,R2,#+8
   \   0000004A   5A40               EORS     R2,R2,R3
   \   0000004C   C37A               LDRB     R3,[R0, #+11]
   \   0000004E   5340               EORS     R3,R3,R2
    991              s3 = GETU32(in + 12) ^ rk[3];
   \   00000050   027B               LDRB     R2,[R0, #+12]
   \   00000052   5F40               EORS     R7,R7,R3
   \   00000054   437B               LDRB     R3,[R0, #+13]
   \   00000056   1206               LSLS     R2,R2,#+24
   \   00000058   1B04               LSLS     R3,R3,#+16
   \   0000005A   5340               EORS     R3,R3,R2
   \   0000005C   827B               LDRB     R2,[R0, #+14]
   \   0000005E   C07B               LDRB     R0,[R0, #+15]
   \   00000060   1202               LSLS     R2,R2,#+8
   \   00000062   5A40               EORS     R2,R2,R3
   \   00000064   5040               EORS     R0,R0,R2
   \   00000066   CA68               LDR      R2,[R1, #+12]
    992          #ifdef FULL_UNROLL
    993              /* round 1: */
    994              t0 = Td0[s0 >> 24] ^ Td1[(s3 >> 16) & 0xff] ^ Td2[(s2 >>  8) & 0xff] ^ Td3[s1 & 0xff] ^ rk[ 4];
    995              t1 = Td0[s1 >> 24] ^ Td1[(s0 >> 16) & 0xff] ^ Td2[(s3 >>  8) & 0xff] ^ Td3[s2 & 0xff] ^ rk[ 5];
    996              t2 = Td0[s2 >> 24] ^ Td1[(s1 >> 16) & 0xff] ^ Td2[(s0 >>  8) & 0xff] ^ Td3[s3 & 0xff] ^ rk[ 6];
    997              t3 = Td0[s3 >> 24] ^ Td1[(s2 >> 16) & 0xff] ^ Td2[(s1 >>  8) & 0xff] ^ Td3[s0 & 0xff] ^ rk[ 7];
    998              /* round 2: */
    999              s0 = Td0[t0 >> 24] ^ Td1[(t3 >> 16) & 0xff] ^ Td2[(t2 >>  8) & 0xff] ^ Td3[t1 & 0xff] ^ rk[ 8];
   1000              s1 = Td0[t1 >> 24] ^ Td1[(t0 >> 16) & 0xff] ^ Td2[(t3 >>  8) & 0xff] ^ Td3[t2 & 0xff] ^ rk[ 9];
   1001              s2 = Td0[t2 >> 24] ^ Td1[(t1 >> 16) & 0xff] ^ Td2[(t0 >>  8) & 0xff] ^ Td3[t3 & 0xff] ^ rk[10];
   1002              s3 = Td0[t3 >> 24] ^ Td1[(t2 >> 16) & 0xff] ^ Td2[(t1 >>  8) & 0xff] ^ Td3[t0 & 0xff] ^ rk[11];
   1003              /* round 3: */
   1004              t0 = Td0[s0 >> 24] ^ Td1[(s3 >> 16) & 0xff] ^ Td2[(s2 >>  8) & 0xff] ^ Td3[s1 & 0xff] ^ rk[12];
   1005              t1 = Td0[s1 >> 24] ^ Td1[(s0 >> 16) & 0xff] ^ Td2[(s3 >>  8) & 0xff] ^ Td3[s2 & 0xff] ^ rk[13];
   1006              t2 = Td0[s2 >> 24] ^ Td1[(s1 >> 16) & 0xff] ^ Td2[(s0 >>  8) & 0xff] ^ Td3[s3 & 0xff] ^ rk[14];
   1007              t3 = Td0[s3 >> 24] ^ Td1[(s2 >> 16) & 0xff] ^ Td2[(s1 >>  8) & 0xff] ^ Td3[s0 & 0xff] ^ rk[15];
   1008              /* round 4: */
   1009              s0 = Td0[t0 >> 24] ^ Td1[(t3 >> 16) & 0xff] ^ Td2[(t2 >>  8) & 0xff] ^ Td3[t1 & 0xff] ^ rk[16];
   1010              s1 = Td0[t1 >> 24] ^ Td1[(t0 >> 16) & 0xff] ^ Td2[(t3 >>  8) & 0xff] ^ Td3[t2 & 0xff] ^ rk[17];
   1011              s2 = Td0[t2 >> 24] ^ Td1[(t1 >> 16) & 0xff] ^ Td2[(t0 >>  8) & 0xff] ^ Td3[t3 & 0xff] ^ rk[18];
   1012              s3 = Td0[t3 >> 24] ^ Td1[(t2 >> 16) & 0xff] ^ Td2[(t1 >>  8) & 0xff] ^ Td3[t0 & 0xff] ^ rk[19];
   1013              /* round 5: */
   1014              t0 = Td0[s0 >> 24] ^ Td1[(s3 >> 16) & 0xff] ^ Td2[(s2 >>  8) & 0xff] ^ Td3[s1 & 0xff] ^ rk[20];
   1015              t1 = Td0[s1 >> 24] ^ Td1[(s0 >> 16) & 0xff] ^ Td2[(s3 >>  8) & 0xff] ^ Td3[s2 & 0xff] ^ rk[21];
   1016              t2 = Td0[s2 >> 24] ^ Td1[(s1 >> 16) & 0xff] ^ Td2[(s0 >>  8) & 0xff] ^ Td3[s3 & 0xff] ^ rk[22];
   1017              t3 = Td0[s3 >> 24] ^ Td1[(s2 >> 16) & 0xff] ^ Td2[(s1 >>  8) & 0xff] ^ Td3[s0 & 0xff] ^ rk[23];
   1018              /* round 6: */
   1019              s0 = Td0[t0 >> 24] ^ Td1[(t3 >> 16) & 0xff] ^ Td2[(t2 >>  8) & 0xff] ^ Td3[t1 & 0xff] ^ rk[24];
   1020              s1 = Td0[t1 >> 24] ^ Td1[(t0 >> 16) & 0xff] ^ Td2[(t3 >>  8) & 0xff] ^ Td3[t2 & 0xff] ^ rk[25];
   1021              s2 = Td0[t2 >> 24] ^ Td1[(t1 >> 16) & 0xff] ^ Td2[(t0 >>  8) & 0xff] ^ Td3[t3 & 0xff] ^ rk[26];
   1022              s3 = Td0[t3 >> 24] ^ Td1[(t2 >> 16) & 0xff] ^ Td2[(t1 >>  8) & 0xff] ^ Td3[t0 & 0xff] ^ rk[27];
   1023              /* round 7: */
   1024              t0 = Td0[s0 >> 24] ^ Td1[(s3 >> 16) & 0xff] ^ Td2[(s2 >>  8) & 0xff] ^ Td3[s1 & 0xff] ^ rk[28];
   1025              t1 = Td0[s1 >> 24] ^ Td1[(s0 >> 16) & 0xff] ^ Td2[(s3 >>  8) & 0xff] ^ Td3[s2 & 0xff] ^ rk[29];
   1026              t2 = Td0[s2 >> 24] ^ Td1[(s1 >> 16) & 0xff] ^ Td2[(s0 >>  8) & 0xff] ^ Td3[s3 & 0xff] ^ rk[30];
   1027              t3 = Td0[s3 >> 24] ^ Td1[(s2 >> 16) & 0xff] ^ Td2[(s1 >>  8) & 0xff] ^ Td3[s0 & 0xff] ^ rk[31];
   1028              /* round 8: */
   1029              s0 = Td0[t0 >> 24] ^ Td1[(t3 >> 16) & 0xff] ^ Td2[(t2 >>  8) & 0xff] ^ Td3[t1 & 0xff] ^ rk[32];
   1030              s1 = Td0[t1 >> 24] ^ Td1[(t0 >> 16) & 0xff] ^ Td2[(t3 >>  8) & 0xff] ^ Td3[t2 & 0xff] ^ rk[33];
   1031              s2 = Td0[t2 >> 24] ^ Td1[(t1 >> 16) & 0xff] ^ Td2[(t0 >>  8) & 0xff] ^ Td3[t3 & 0xff] ^ rk[34];
   1032              s3 = Td0[t3 >> 24] ^ Td1[(t2 >> 16) & 0xff] ^ Td2[(t1 >>  8) & 0xff] ^ Td3[t0 & 0xff] ^ rk[35];
   1033              /* round 9: */
   1034              t0 = Td0[s0 >> 24] ^ Td1[(s3 >> 16) & 0xff] ^ Td2[(s2 >>  8) & 0xff] ^ Td3[s1 & 0xff] ^ rk[36];
   1035              t1 = Td0[s1 >> 24] ^ Td1[(s0 >> 16) & 0xff] ^ Td2[(s3 >>  8) & 0xff] ^ Td3[s2 & 0xff] ^ rk[37];
   1036              t2 = Td0[s2 >> 24] ^ Td1[(s1 >> 16) & 0xff] ^ Td2[(s0 >>  8) & 0xff] ^ Td3[s3 & 0xff] ^ rk[38];
   1037              t3 = Td0[s3 >> 24] ^ Td1[(s2 >> 16) & 0xff] ^ Td2[(s1 >>  8) & 0xff] ^ Td3[s0 & 0xff] ^ rk[39];
   1038              if (key->rounds > 10) {
   1039                  /* round 10: */
   1040                  s0 = Td0[t0 >> 24] ^ Td1[(t3 >> 16) & 0xff] ^ Td2[(t2 >>  8) & 0xff] ^ Td3[t1 & 0xff] ^ rk[40];
   1041                  s1 = Td0[t1 >> 24] ^ Td1[(t0 >> 16) & 0xff] ^ Td2[(t3 >>  8) & 0xff] ^ Td3[t2 & 0xff] ^ rk[41];
   1042                  s2 = Td0[t2 >> 24] ^ Td1[(t1 >> 16) & 0xff] ^ Td2[(t0 >>  8) & 0xff] ^ Td3[t3 & 0xff] ^ rk[42];
   1043                  s3 = Td0[t3 >> 24] ^ Td1[(t2 >> 16) & 0xff] ^ Td2[(t1 >>  8) & 0xff] ^ Td3[t0 & 0xff] ^ rk[43];
   1044                  /* round 11: */
   1045                  t0 = Td0[s0 >> 24] ^ Td1[(s3 >> 16) & 0xff] ^ Td2[(s2 >>  8) & 0xff] ^ Td3[s1 & 0xff] ^ rk[44];
   1046                  t1 = Td0[s1 >> 24] ^ Td1[(s0 >> 16) & 0xff] ^ Td2[(s3 >>  8) & 0xff] ^ Td3[s2 & 0xff] ^ rk[45];
   1047                  t2 = Td0[s2 >> 24] ^ Td1[(s1 >> 16) & 0xff] ^ Td2[(s0 >>  8) & 0xff] ^ Td3[s3 & 0xff] ^ rk[46];
   1048                  t3 = Td0[s3 >> 24] ^ Td1[(s2 >> 16) & 0xff] ^ Td2[(s1 >>  8) & 0xff] ^ Td3[s0 & 0xff] ^ rk[47];
   1049                  if (key->rounds > 12) {
   1050                      /* round 12: */
   1051                      s0 = Td0[t0 >> 24] ^ Td1[(t3 >> 16) & 0xff] ^ Td2[(t2 >>  8) & 0xff] ^ Td3[t1 & 0xff] ^ rk[48];
   1052                      s1 = Td0[t1 >> 24] ^ Td1[(t0 >> 16) & 0xff] ^ Td2[(t3 >>  8) & 0xff] ^ Td3[t2 & 0xff] ^ rk[49];
   1053                      s2 = Td0[t2 >> 24] ^ Td1[(t1 >> 16) & 0xff] ^ Td2[(t0 >>  8) & 0xff] ^ Td3[t3 & 0xff] ^ rk[50];
   1054                      s3 = Td0[t3 >> 24] ^ Td1[(t2 >> 16) & 0xff] ^ Td2[(t1 >>  8) & 0xff] ^ Td3[t0 & 0xff] ^ rk[51];
   1055                      /* round 13: */
   1056                      t0 = Td0[s0 >> 24] ^ Td1[(s3 >> 16) & 0xff] ^ Td2[(s2 >>  8) & 0xff] ^ Td3[s1 & 0xff] ^ rk[52];
   1057                      t1 = Td0[s1 >> 24] ^ Td1[(s0 >> 16) & 0xff] ^ Td2[(s3 >>  8) & 0xff] ^ Td3[s2 & 0xff] ^ rk[53];
   1058                      t2 = Td0[s2 >> 24] ^ Td1[(s1 >> 16) & 0xff] ^ Td2[(s0 >>  8) & 0xff] ^ Td3[s3 & 0xff] ^ rk[54];
   1059                      t3 = Td0[s3 >> 24] ^ Td1[(s2 >> 16) & 0xff] ^ Td2[(s1 >>  8) & 0xff] ^ Td3[s0 & 0xff] ^ rk[55];
   1060                  }
   1061              }
   1062          	rk += key->rounds << 2;
   1063          #else  /* !FULL_UNROLL */
   1064              /*
   1065               * Nr - 1 full rounds:
   1066               */
   1067              r = key->rounds >> 1;
   \   00000068   F031               ADDS     R1,R1,#+240
   \   0000006A   4240               EORS     R2,R2,R0
   \   0000006C   0868               LDR      R0,[R1, #+0]
   \   0000006E   4010               ASRS     R0,R0,#+1
   \   00000070   0290               STR      R0,[SP, #+8]
   \   00000072   FF20               MOVS     R0,#+255
   \   00000074   6FE0               B        ??AES_decrypt_0
   1068              for (;;) {
   1069                  t0 =
   1070                      Td0[(s0 >> 24)       ] ^
   1071                      Td1[(s3 >> 16) & 0xff] ^
   1072                      Td2[(s2 >>  8) & 0xff] ^
   1073                      Td3[(s1      ) & 0xff] ^
   1074                      rk[4];
   1075                  t1 =
   1076                      Td0[(s1 >> 24)       ] ^
   1077                      Td1[(s0 >> 16) & 0xff] ^
   1078                      Td2[(s3 >>  8) & 0xff] ^
   1079                      Td3[(s2      ) & 0xff] ^
   1080                      rk[5];
   1081                  t2 =
   1082                      Td0[(s2 >> 24)       ] ^
   1083                      Td1[(s1 >> 16) & 0xff] ^
   1084                      Td2[(s0 >>  8) & 0xff] ^
   1085                      Td3[(s3      ) & 0xff] ^
   1086                      rk[6];
   1087                  t3 =
   1088                      Td0[(s3 >> 24)       ] ^
   1089                      Td1[(s2 >> 16) & 0xff] ^
   1090                      Td2[(s1 >>  8) & 0xff] ^
   1091                      Td3[(s0      ) & 0xff] ^
   1092                      rk[7];
   1093          
   1094                  rk += 8;
   1095                  if (--r == 0) {
   1096                      break;
   1097                  }
   1098          
   1099                  s0 =
   1100                      Td0[(t0 >> 24)       ] ^
   1101                      Td1[(t3 >> 16) & 0xff] ^
   1102                      Td2[(t2 >>  8) & 0xff] ^
   1103                      Td3[(t1      ) & 0xff] ^
   1104                      rk[0];
   \                     ??AES_decrypt_1:
   \   00000076   ....               LDR      R6,??DataTable100  ;; Td0
   \   00000078   ....               LDR      R7,??DataTable101  ;; Td1
   \   0000007A   0D0E               LSRS     R5,R1,#+24
   \   0000007C   AD00               LSLS     R5,R5,#+2
   \   0000007E   7659               LDR      R6,[R6, R5]
   \   00000080   150C               LSRS     R5,R2,#+16
   \   00000082   0540               ANDS     R5,R5,R0
   \   00000084   AD00               LSLS     R5,R5,#+2
   \   00000086   7D59               LDR      R5,[R7, R5]
   \   00000088   ....               LDR      R7,??DataTable102  ;; Td2
   \   0000008A   7540               EORS     R5,R5,R6
   \   0000008C   1E0A               LSRS     R6,R3,#+8
   \   0000008E   0640               ANDS     R6,R6,R0
   \   00000090   B600               LSLS     R6,R6,#+2
   \   00000092   BE59               LDR      R6,[R7, R6]
   \   00000094   ....               LDR      R7,??DataTable103  ;; Td3
   \   00000096   6E40               EORS     R6,R6,R5
   \   00000098   FF25               MOVS     R5,#+255
   \   0000009A   2540               ANDS     R5,R5,R4
   \   0000009C   AD00               LSLS     R5,R5,#+2
   \   0000009E   7F59               LDR      R7,[R7, R5]
   \   000000A0   019D               LDR      R5,[SP, #+4]
   \   000000A2   7740               EORS     R7,R7,R6
   \   000000A4   2D68               LDR      R5,[R5, #+0]
   1105                  s1 =
   1106                      Td0[(t1 >> 24)       ] ^
   1107                      Td1[(t0 >> 16) & 0xff] ^
   1108                      Td2[(t3 >>  8) & 0xff] ^
   1109                      Td3[(t2      ) & 0xff] ^
   1110                      rk[1];
   \   000000A6   260E               LSRS     R6,R4,#+24
   \   000000A8   7D40               EORS     R5,R5,R7
   \   000000AA   ....               LDR      R7,??DataTable100  ;; Td0
   \   000000AC   B600               LSLS     R6,R6,#+2
   \   000000AE   BF59               LDR      R7,[R7, R6]
   \   000000B0   0E0C               LSRS     R6,R1,#+16
   \   000000B2   BC46               MOV      R12,R7
   \   000000B4   0640               ANDS     R6,R6,R0
   \   000000B6   B700               LSLS     R7,R6,#+2
   \   000000B8   ....               LDR      R6,??DataTable101  ;; Td1
   \   000000BA   F659               LDR      R6,[R6, R7]
   \   000000BC   6746               MOV      R7,R12
   \   000000BE   7E40               EORS     R6,R6,R7
   \   000000C0   B446               MOV      R12,R6
   \   000000C2   160A               LSRS     R6,R2,#+8
   \   000000C4   0640               ANDS     R6,R6,R0
   \   000000C6   B700               LSLS     R7,R6,#+2
   \   000000C8   ....               LDR      R6,??DataTable102  ;; Td2
   \   000000CA   F659               LDR      R6,[R6, R7]
   \   000000CC   6746               MOV      R7,R12
   \   000000CE   7E40               EORS     R6,R6,R7
   \   000000D0   B446               MOV      R12,R6
   \   000000D2   0600               MOVS     R6,R0
   \   000000D4   1E40               ANDS     R6,R6,R3
   \   000000D6   B700               LSLS     R7,R6,#+2
   \   000000D8   ....               LDR      R6,??DataTable103  ;; Td3
   \   000000DA   F659               LDR      R6,[R6, R7]
   \   000000DC   6746               MOV      R7,R12
   \   000000DE   7E40               EORS     R6,R6,R7
   \   000000E0   019F               LDR      R7,[SP, #+4]
   \   000000E2   7F68               LDR      R7,[R7, #+4]
   \   000000E4   7740               EORS     R7,R7,R6
   \   000000E6   0097               STR      R7,[SP, #+0]
   1111                  s2 =
   1112                      Td0[(t2 >> 24)       ] ^
   1113                      Td1[(t1 >> 16) & 0xff] ^
   1114                      Td2[(t0 >>  8) & 0xff] ^
   1115                      Td3[(t3      ) & 0xff] ^
   1116                      rk[2];
   \   000000E8   ....               LDR      R7,??DataTable100  ;; Td0
   \   000000EA   1E0E               LSRS     R6,R3,#+24
   \   000000EC   B600               LSLS     R6,R6,#+2
   \   000000EE   BF59               LDR      R7,[R7, R6]
   \   000000F0   260C               LSRS     R6,R4,#+16
   \   000000F2   BC46               MOV      R12,R7
   \   000000F4   0640               ANDS     R6,R6,R0
   \   000000F6   B700               LSLS     R7,R6,#+2
   \   000000F8   ....               LDR      R6,??DataTable101  ;; Td1
   1117                  s3 =
   1118                      Td0[(t3 >> 24)       ] ^
   1119                      Td1[(t2 >> 16) & 0xff] ^
   1120                      Td2[(t1 >>  8) & 0xff] ^
   1121                      Td3[(t0      ) & 0xff] ^
   1122                      rk[3];
   \   000000FA   1B0C               LSRS     R3,R3,#+16
   \   000000FC   F659               LDR      R6,[R6, R7]
   \   000000FE   6746               MOV      R7,R12
   \   00000100   7E40               EORS     R6,R6,R7
   \   00000102   B446               MOV      R12,R6
   \   00000104   0E0A               LSRS     R6,R1,#+8
   \   00000106   0640               ANDS     R6,R6,R0
   \   00000108   B700               LSLS     R7,R6,#+2
   \   0000010A   ....               LDR      R6,??DataTable102  ;; Td2
   \   0000010C   0340               ANDS     R3,R3,R0
   \   0000010E   F659               LDR      R6,[R6, R7]
   \   00000110   6746               MOV      R7,R12
   \   00000112   7E40               EORS     R6,R6,R7
   \   00000114   B446               MOV      R12,R6
   \   00000116   0600               MOVS     R6,R0
   \   00000118   1640               ANDS     R6,R6,R2
   \   0000011A   B700               LSLS     R7,R6,#+2
   \   0000011C   ....               LDR      R6,??DataTable103  ;; Td3
   \   0000011E   120E               LSRS     R2,R2,#+24
   \   00000120   F659               LDR      R6,[R6, R7]
   \   00000122   6746               MOV      R7,R12
   \   00000124   7E40               EORS     R6,R6,R7
   \   00000126   019F               LDR      R7,[SP, #+4]
   \   00000128   9200               LSLS     R2,R2,#+2
   \   0000012A   BF68               LDR      R7,[R7, #+8]
   \   0000012C   9B00               LSLS     R3,R3,#+2
   \   0000012E   7740               EORS     R7,R7,R6
   \   00000130   ....               LDR      R6,??DataTable100  ;; Td0
   \   00000132   0140               ANDS     R1,R1,R0
   \   00000134   B258               LDR      R2,[R6, R2]
   \   00000136   ....               LDR      R6,??DataTable101  ;; Td1
   \   00000138   8900               LSLS     R1,R1,#+2
   \   0000013A   F358               LDR      R3,[R6, R3]
   \   0000013C   5340               EORS     R3,R3,R2
   \   0000013E   220A               LSRS     R2,R4,#+8
   \   00000140   ....               LDR      R4,??DataTable102  ;; Td2
   \   00000142   0240               ANDS     R2,R2,R0
   \   00000144   9200               LSLS     R2,R2,#+2
   \   00000146   A258               LDR      R2,[R4, R2]
   \   00000148   5A40               EORS     R2,R2,R3
   \   0000014A   ....               LDR      R3,??DataTable103  ;; Td3
   \   0000014C   5958               LDR      R1,[R3, R1]
   \   0000014E   5140               EORS     R1,R1,R2
   \   00000150   019A               LDR      R2,[SP, #+4]
   \   00000152   D268               LDR      R2,[R2, #+12]
   \   00000154   4A40               EORS     R2,R2,R1
   \                     ??AES_decrypt_0:
   \   00000156   ....               LDR      R3,??DataTable100  ;; Td0
   \   00000158   ....               LDR      R4,??DataTable101  ;; Td1
   \   0000015A   ....               LDR      R6,??DataTable101  ;; Td1
   \   0000015C   290E               LSRS     R1,R5,#+24
   \   0000015E   8900               LSLS     R1,R1,#+2
   \   00000160   5958               LDR      R1,[R3, R1]
   \   00000162   130C               LSRS     R3,R2,#+16
   \   00000164   0340               ANDS     R3,R3,R0
   \   00000166   9B00               LSLS     R3,R3,#+2
   \   00000168   E358               LDR      R3,[R4, R3]
   \   0000016A   ....               LDR      R4,??DataTable102  ;; Td2
   \   0000016C   4B40               EORS     R3,R3,R1
   \   0000016E   390A               LSRS     R1,R7,#+8
   \   00000170   0140               ANDS     R1,R1,R0
   \   00000172   8900               LSLS     R1,R1,#+2
   \   00000174   6158               LDR      R1,[R4, R1]
   \   00000176   ....               LDR      R4,??DataTable103  ;; Td3
   \   00000178   5940               EORS     R1,R1,R3
   \   0000017A   009B               LDR      R3,[SP, #+0]
   \   0000017C   0340               ANDS     R3,R3,R0
   \   0000017E   9B00               LSLS     R3,R3,#+2
   \   00000180   E358               LDR      R3,[R4, R3]
   \   00000182   ....               LDR      R4,??DataTable100  ;; Td0
   \   00000184   4B40               EORS     R3,R3,R1
   \   00000186   0199               LDR      R1,[SP, #+4]
   \   00000188   0969               LDR      R1,[R1, #+16]
   \   0000018A   5940               EORS     R1,R1,R3
   \   0000018C   009B               LDR      R3,[SP, #+0]
   \   0000018E   1B0E               LSRS     R3,R3,#+24
   \   00000190   9B00               LSLS     R3,R3,#+2
   \   00000192   E458               LDR      R4,[R4, R3]
   \   00000194   2B0C               LSRS     R3,R5,#+16
   \   00000196   0340               ANDS     R3,R3,R0
   \   00000198   9B00               LSLS     R3,R3,#+2
   \   0000019A   F358               LDR      R3,[R6, R3]
   \   0000019C   ....               LDR      R6,??DataTable102  ;; Td2
   \   0000019E   6340               EORS     R3,R3,R4
   \   000001A0   140A               LSRS     R4,R2,#+8
   \   000001A2   0440               ANDS     R4,R4,R0
   \   000001A4   A400               LSLS     R4,R4,#+2
   \   000001A6   3459               LDR      R4,[R6, R4]
   \   000001A8   ....               LDR      R6,??DataTable103  ;; Td3
   \   000001AA   5C40               EORS     R4,R4,R3
   \   000001AC   FF23               MOVS     R3,#+255
   \   000001AE   3B40               ANDS     R3,R3,R7
   \   000001B0   9B00               LSLS     R3,R3,#+2
   \   000001B2   F358               LDR      R3,[R6, R3]
   \   000001B4   ....               LDR      R6,??DataTable100  ;; Td0
   \   000001B6   6340               EORS     R3,R3,R4
   \   000001B8   019C               LDR      R4,[SP, #+4]
   \   000001BA   6469               LDR      R4,[R4, #+20]
   \   000001BC   5C40               EORS     R4,R4,R3
   \   000001BE   3B0E               LSRS     R3,R7,#+24
   \   000001C0   9B00               LSLS     R3,R3,#+2
   \   000001C2   F658               LDR      R6,[R6, R3]
   \   000001C4   009B               LDR      R3,[SP, #+0]
   \   000001C6   B446               MOV      R12,R6
   \   000001C8   1B0C               LSRS     R3,R3,#+16
   \   000001CA   0340               ANDS     R3,R3,R0
   \   000001CC   9E00               LSLS     R6,R3,#+2
   \   000001CE   ....               LDR      R3,??DataTable101  ;; Td1
   \   000001D0   9B59               LDR      R3,[R3, R6]
   \   000001D2   6646               MOV      R6,R12
   \   000001D4   7340               EORS     R3,R3,R6
   \   000001D6   9C46               MOV      R12,R3
   \   000001D8   2B0A               LSRS     R3,R5,#+8
   \   000001DA   0340               ANDS     R3,R3,R0
   \   000001DC   9E00               LSLS     R6,R3,#+2
   \   000001DE   ....               LDR      R3,??DataTable102  ;; Td2
   \   000001E0   0540               ANDS     R5,R5,R0
   \   000001E2   9B59               LDR      R3,[R3, R6]
   \   000001E4   6646               MOV      R6,R12
   \   000001E6   7340               EORS     R3,R3,R6
   \   000001E8   9C46               MOV      R12,R3
   \   000001EA   0300               MOVS     R3,R0
   \   000001EC   1340               ANDS     R3,R3,R2
   \   000001EE   9E00               LSLS     R6,R3,#+2
   \   000001F0   ....               LDR      R3,??DataTable103  ;; Td3
   \   000001F2   120E               LSRS     R2,R2,#+24
   \   000001F4   9B59               LDR      R3,[R3, R6]
   \   000001F6   6646               MOV      R6,R12
   \   000001F8   7340               EORS     R3,R3,R6
   \   000001FA   1E00               MOVS     R6,R3
   \   000001FC   019B               LDR      R3,[SP, #+4]
   \   000001FE   9200               LSLS     R2,R2,#+2
   \   00000200   9B69               LDR      R3,[R3, #+24]
   \   00000202   AD00               LSLS     R5,R5,#+2
   \   00000204   7340               EORS     R3,R3,R6
   \   00000206   ....               LDR      R6,??DataTable100  ;; Td0
   \   00000208   B258               LDR      R2,[R6, R2]
   \   0000020A   3E0C               LSRS     R6,R7,#+16
   \   0000020C   ....               LDR      R7,??DataTable101  ;; Td1
   \   0000020E   0640               ANDS     R6,R6,R0
   \   00000210   B600               LSLS     R6,R6,#+2
   \   00000212   BE59               LDR      R6,[R7, R6]
   \   00000214   ....               LDR      R7,??DataTable102  ;; Td2
   \   00000216   5640               EORS     R6,R6,R2
   \   00000218   009A               LDR      R2,[SP, #+0]
   \   0000021A   120A               LSRS     R2,R2,#+8
   \   0000021C   0240               ANDS     R2,R2,R0
   \   0000021E   9200               LSLS     R2,R2,#+2
   \   00000220   BA58               LDR      R2,[R7, R2]
   \   00000222   7240               EORS     R2,R2,R6
   \   00000224   ....               LDR      R6,??DataTable103  ;; Td3
   \   00000226   7559               LDR      R5,[R6, R5]
   \   00000228   5540               EORS     R5,R5,R2
   \   0000022A   019A               LDR      R2,[SP, #+4]
   \   0000022C   D269               LDR      R2,[R2, #+28]
   \   0000022E   6A40               EORS     R2,R2,R5
   \   00000230   019D               LDR      R5,[SP, #+4]
   \   00000232   2035               ADDS     R5,R5,#+32
   \   00000234   0195               STR      R5,[SP, #+4]
   \   00000236   029D               LDR      R5,[SP, #+8]
   \   00000238   6D1E               SUBS     R5,R5,#+1
   \   0000023A   0295               STR      R5,[SP, #+8]
   \   0000023C   ....               BEQ      .+5
   \   0000023E   1AE7               B        ??AES_decrypt_1
   1123              }
   1124          #endif /* ?FULL_UNROLL */
   1125              /*
   1126          	 * apply last round and
   1127          	 * map cipher state to byte array block:
   1128          	 */
   1129             	s0 =
   1130             		(Td4[(t0 >> 24)       ] << 24) ^
   1131             		(Td4[(t3 >> 16) & 0xff] << 16) ^
   1132             		(Td4[(t2 >>  8) & 0xff] <<  8) ^
   1133             		(Td4[(t1      ) & 0xff])       ^
   1134             		rk[0];
   \   00000240   454E               LDR      R6,??AES_decrypt_2  ;; Td4
   \   00000242   0D0E               LSRS     R5,R1,#+24
   \   00000244   755D               LDRB     R5,[R6, R5]
   \   00000246   170C               LSRS     R7,R2,#+16
   \   00000248   0740               ANDS     R7,R7,R0
   \   0000024A   F75D               LDRB     R7,[R6, R7]
   \   0000024C   2D06               LSLS     R5,R5,#+24
   \   0000024E   3F04               LSLS     R7,R7,#+16
   \   00000250   6F40               EORS     R7,R7,R5
   \   00000252   1D0A               LSRS     R5,R3,#+8
   \   00000254   0540               ANDS     R5,R5,R0
   \   00000256   755D               LDRB     R5,[R6, R5]
   \   00000258   2D02               LSLS     R5,R5,#+8
   \   0000025A   7D40               EORS     R5,R5,R7
   \   0000025C   FF27               MOVS     R7,#+255
   \   0000025E   2740               ANDS     R7,R7,R4
   \   00000260   F75D               LDRB     R7,[R6, R7]
   \   00000262   6F40               EORS     R7,R7,R5
   \   00000264   019D               LDR      R5,[SP, #+4]
   \   00000266   2D68               LDR      R5,[R5, #+0]
   \   00000268   7D40               EORS     R5,R5,R7
   \   0000026A   0095               STR      R5,[SP, #+0]
   1135          	PUTU32(out     , s0);
   \   0000026C   039D               LDR      R5,[SP, #+12]
   \   0000026E   009F               LDR      R7,[SP, #+0]
   \   00000270   3F0E               LSRS     R7,R7,#+24
   \   00000272   2F70               STRB     R7,[R5, #+0]
   \   00000274   039D               LDR      R5,[SP, #+12]
   \   00000276   009F               LDR      R7,[SP, #+0]
   \   00000278   3F0C               LSRS     R7,R7,#+16
   \   0000027A   6F70               STRB     R7,[R5, #+1]
   \   0000027C   039D               LDR      R5,[SP, #+12]
   \   0000027E   009F               LDR      R7,[SP, #+0]
   \   00000280   3F0A               LSRS     R7,R7,#+8
   \   00000282   AF70               STRB     R7,[R5, #+2]
   \   00000284   039D               LDR      R5,[SP, #+12]
   \   00000286   009F               LDR      R7,[SP, #+0]
   \   00000288   EF70               STRB     R7,[R5, #+3]
   1136             	s1 =
   1137             		(Td4[(t1 >> 24)       ] << 24) ^
   1138             		(Td4[(t0 >> 16) & 0xff] << 16) ^
   1139             		(Td4[(t3 >>  8) & 0xff] <<  8) ^
   1140             		(Td4[(t2      ) & 0xff])       ^
   1141             		rk[1];
   \   0000028A   250E               LSRS     R5,R4,#+24
   \   0000028C   755D               LDRB     R5,[R6, R5]
   \   0000028E   0F0C               LSRS     R7,R1,#+16
   \   00000290   0740               ANDS     R7,R7,R0
   \   00000292   F75D               LDRB     R7,[R6, R7]
   \   00000294   2D06               LSLS     R5,R5,#+24
   \   00000296   3F04               LSLS     R7,R7,#+16
   \   00000298   6F40               EORS     R7,R7,R5
   \   0000029A   150A               LSRS     R5,R2,#+8
   \   0000029C   0540               ANDS     R5,R5,R0
   \   0000029E   755D               LDRB     R5,[R6, R5]
   \   000002A0   2D02               LSLS     R5,R5,#+8
   \   000002A2   7D40               EORS     R5,R5,R7
   \   000002A4   0700               MOVS     R7,R0
   \   000002A6   1F40               ANDS     R7,R7,R3
   \   000002A8   F75D               LDRB     R7,[R6, R7]
   \   000002AA   6F40               EORS     R7,R7,R5
   \   000002AC   019D               LDR      R5,[SP, #+4]
   \   000002AE   6D68               LDR      R5,[R5, #+4]
   \   000002B0   7D40               EORS     R5,R5,R7
   \   000002B2   0095               STR      R5,[SP, #+0]
   1142          	PUTU32(out +  4, s1);
   \   000002B4   039D               LDR      R5,[SP, #+12]
   \   000002B6   009F               LDR      R7,[SP, #+0]
   \   000002B8   3F0E               LSRS     R7,R7,#+24
   \   000002BA   2F71               STRB     R7,[R5, #+4]
   \   000002BC   039D               LDR      R5,[SP, #+12]
   \   000002BE   009F               LDR      R7,[SP, #+0]
   \   000002C0   3F0C               LSRS     R7,R7,#+16
   \   000002C2   6F71               STRB     R7,[R5, #+5]
   \   000002C4   039D               LDR      R5,[SP, #+12]
   \   000002C6   009F               LDR      R7,[SP, #+0]
   \   000002C8   3F0A               LSRS     R7,R7,#+8
   \   000002CA   AF71               STRB     R7,[R5, #+6]
   \   000002CC   039D               LDR      R5,[SP, #+12]
   \   000002CE   009F               LDR      R7,[SP, #+0]
   \   000002D0   EF71               STRB     R7,[R5, #+7]
   1143             	s2 =
   1144             		(Td4[(t2 >> 24)       ] << 24) ^
   1145             		(Td4[(t1 >> 16) & 0xff] << 16) ^
   1146             		(Td4[(t0 >>  8) & 0xff] <<  8) ^
   1147             		(Td4[(t3      ) & 0xff])       ^
   1148             		rk[2];
   \   000002D2   1D0E               LSRS     R5,R3,#+24
   \   000002D4   755D               LDRB     R5,[R6, R5]
   \   000002D6   270C               LSRS     R7,R4,#+16
   \   000002D8   0740               ANDS     R7,R7,R0
   \   000002DA   F75D               LDRB     R7,[R6, R7]
   \   000002DC   2D06               LSLS     R5,R5,#+24
   1149          	PUTU32(out +  8, s2);
   1150             	s3 =
   1151             		(Td4[(t3 >> 24)       ] << 24) ^
   1152             		(Td4[(t2 >> 16) & 0xff] << 16) ^
   1153             		(Td4[(t1 >>  8) & 0xff] <<  8) ^
   1154             		(Td4[(t0      ) & 0xff])       ^
   1155             		rk[3];
   \   000002DE   1B0C               LSRS     R3,R3,#+16
   \   000002E0   3F04               LSLS     R7,R7,#+16
   \   000002E2   6F40               EORS     R7,R7,R5
   \   000002E4   0D0A               LSRS     R5,R1,#+8
   \   000002E6   0540               ANDS     R5,R5,R0
   \   000002E8   755D               LDRB     R5,[R6, R5]
   \   000002EA   0340               ANDS     R3,R3,R0
   \   000002EC   2D02               LSLS     R5,R5,#+8
   \   000002EE   7D40               EORS     R5,R5,R7
   \   000002F0   0700               MOVS     R7,R0
   \   000002F2   1740               ANDS     R7,R7,R2
   \   000002F4   F75D               LDRB     R7,[R6, R7]
   \   000002F6   120E               LSRS     R2,R2,#+24
   \   000002F8   6F40               EORS     R7,R7,R5
   \   000002FA   019D               LDR      R5,[SP, #+4]
   \   000002FC   AD68               LDR      R5,[R5, #+8]
   \   000002FE   7D40               EORS     R5,R5,R7
   \   00000300   0095               STR      R5,[SP, #+0]
   \   00000302   039D               LDR      R5,[SP, #+12]
   \   00000304   009F               LDR      R7,[SP, #+0]
   \   00000306   3F0E               LSRS     R7,R7,#+24
   \   00000308   2F72               STRB     R7,[R5, #+8]
   \   0000030A   039D               LDR      R5,[SP, #+12]
   \   0000030C   009F               LDR      R7,[SP, #+0]
   \   0000030E   3F0C               LSRS     R7,R7,#+16
   \   00000310   6F72               STRB     R7,[R5, #+9]
   \   00000312   039D               LDR      R5,[SP, #+12]
   \   00000314   009F               LDR      R7,[SP, #+0]
   \   00000316   3F0A               LSRS     R7,R7,#+8
   \   00000318   AF72               STRB     R7,[R5, #+10]
   \   0000031A   039D               LDR      R5,[SP, #+12]
   \   0000031C   009F               LDR      R7,[SP, #+0]
   \   0000031E   EF72               STRB     R7,[R5, #+11]
   \   00000320   B25C               LDRB     R2,[R6, R2]
   \   00000322   F35C               LDRB     R3,[R6, R3]
   \   00000324   1206               LSLS     R2,R2,#+24
   \   00000326   1B04               LSLS     R3,R3,#+16
   \   00000328   5340               EORS     R3,R3,R2
   \   0000032A   220A               LSRS     R2,R4,#+8
   \   0000032C   0240               ANDS     R2,R2,R0
   \   0000032E   B25C               LDRB     R2,[R6, R2]
   \   00000330   0840               ANDS     R0,R0,R1
   \   00000332   315C               LDRB     R1,[R6, R0]
   \   00000334   0198               LDR      R0,[SP, #+4]
   \   00000336   1202               LSLS     R2,R2,#+8
   \   00000338   C068               LDR      R0,[R0, #+12]
   \   0000033A   5A40               EORS     R2,R2,R3
   \   0000033C   5140               EORS     R1,R1,R2
   \   0000033E   4840               EORS     R0,R0,R1
   1156          	PUTU32(out + 12, s3);
   \   00000340   0399               LDR      R1,[SP, #+12]
   \   00000342   020E               LSRS     R2,R0,#+24
   \   00000344   0A73               STRB     R2,[R1, #+12]
   \   00000346   0399               LDR      R1,[SP, #+12]
   \   00000348   020C               LSRS     R2,R0,#+16
   \   0000034A   4A73               STRB     R2,[R1, #+13]
   \   0000034C   0399               LDR      R1,[SP, #+12]
   \   0000034E   020A               LSRS     R2,R0,#+8
   \   00000350   8A73               STRB     R2,[R1, #+14]
   \   00000352   0399               LDR      R1,[SP, #+12]
   \   00000354   C873               STRB     R0,[R1, #+15]
   1157          }
   \   00000356   FFBD               POP      {R0-R7,PC}       ;; return
   \                     ??AES_decrypt_2:
   \   00000358   ........           DC32     Td4

   \                                 In segment CODE, align 4, keep-with-next
   \                     ??DataTable0:
   \   00000000   ........           DC32     Te2

   \                                 In segment CODE, align 4, keep-with-next
   \                     ??DataTable10:
   \   00000000   ........           DC32     Te3

   \                                 In segment CODE, align 4, keep-with-next
   \                     ??DataTable11:
   \   00000000   ........           DC32     Te0

   \                                 In segment CODE, align 4, keep-with-next
   \                     ??DataTable13:
   \   00000000   ........           DC32     Te1

   \                                 In segment CODE, align 4, keep-with-next
   \                     ??DataTable14:
   \   00000000   ........           DC32     Td3

   \                                 In segment CODE, align 4, keep-with-next
   \                     ??DataTable15:
   \   00000000   ........           DC32     Td0

   \                                 In segment CODE, align 4, keep-with-next
   \                     ??DataTable22:
   \   00000000   ........           DC32     Td1

   \                                 In segment CODE, align 4, keep-with-next
   \                     ??DataTable23:
   \   00000000   ........           DC32     Td2

   \                                 In segment CODE, align 4, keep-with-next
   \                     ??DataTable52:
   \   00000000   ........           DC32     Te0

   \                                 In segment CODE, align 4, keep-with-next
   \                     ??DataTable59:
   \   00000000   ........           DC32     Te1

   \                                 In segment CODE, align 4, keep-with-next
   \                     ??DataTable64:
   \   00000000   ........           DC32     Te2

   \                                 In segment CODE, align 4, keep-with-next
   \                     ??DataTable69:
   \   00000000   ........           DC32     Te3

   \                                 In segment CODE, align 4, keep-with-next
   \                     ??DataTable100:
   \   00000000   ........           DC32     Td0

   \                                 In segment CODE, align 4, keep-with-next
   \                     ??DataTable101:
   \   00000000   ........           DC32     Td1

   \                                 In segment CODE, align 4, keep-with-next
   \                     ??DataTable102:
   \   00000000   ........           DC32     Td2

   \                                 In segment CODE, align 4, keep-with-next
   \                     ??DataTable103:
   \   00000000   ........           DC32     Td3
   1158          
   1159          #endif /* ndef OPENSSL_FIPS */

   Maximum stack usage in bytes:

     Function            CSTACK
     --------            ------
     AES_decrypt            36
     AES_encrypt            36
     AES_set_decrypt_key    24
     AES_set_encrypt_key    20


   Segment part sizes:

     Function/Label      Bytes
     --------------      -----
     Te0                 1024
     Te1                 1024
     Te2                 1024
     Te3                 1024
     Td0                 1024
     Td1                 1024
     Td2                 1024
     Td3                 1024
     Td4                  256
     rcon                  40
     AES_set_encrypt_key  688
     AES_set_decrypt_key  416
     AES_encrypt          988
     AES_decrypt          860
     ??DataTable0           4
     ??DataTable10          4
     ??DataTable11          4
     ??DataTable13          4
     ??DataTable14          4
     ??DataTable15          4
     ??DataTable22          4
     ??DataTable23          4
     ??DataTable52          4
     ??DataTable59          4
     ??DataTable64          4
     ??DataTable69          4
     ??DataTable100         4
     ??DataTable101         4
     ??DataTable102         4
     ??DataTable103         4
      Others               32

 
 3 048 bytes in segment CODE
 8 488 bytes in segment DATA_C
 
 3 016 bytes of CODE  memory (+ 32 bytes shared)
 8 488 bytes of CONST memory

Errors: none
Warnings: none
