##############################################################################
#                                                                            #
# IAR ARM ANSI C/C++ Compiler V4.42A/W32 EVALUATION    08/Jun/2017  22:38:19 #
# Copyright 1999-2005 IAR Systems. All rights reserved.                      #
#                                                                            #
#    Cpu mode        =  interwork                                            #
#    Endian          =  little                                               #
#    Stack alignment =  4                                                    #
#    Source file     =  E:\Users\alfinant\Documents\Siemens\alfinant\CarCont #
#                       rol2\irq_work.c                                      #
#    Command line    =  E:\Users\alfinant\Documents\Siemens\alfinant\CarCont #
#                       rol2\irq_work.c -D X75 -D SGOLD -lC                  #
#                       E:\Users\alfinant\Documents\Siemens\alfinant\CarCont #
#                       rol2\Release_SGOLDX75\List\ -o                       #
#                       E:\Users\alfinant\Documents\Siemens\alfinant\CarCont #
#                       rol2\Release_SGOLDX75\Obj\ -s9 --cpu_mode arm        #
#                       --endian little --cpu ARM926EJ-S --stack_align 4     #
#                       --interwork -e --fpu None -I                         #
#                       E:\Users\alfinant\Documents\Siemens\IAR\ARM\INC\     #
#                       --inline_threshold=2                                 #
#    List file       =  E:\Users\alfinant\Documents\Siemens\alfinant\CarCont #
#                       rol2\Release_SGOLDX75\List\irq_work.lst              #
#    Object file     =  E:\Users\alfinant\Documents\Siemens\alfinant\CarCont #
#                       rol2\Release_SGOLDX75\Obj\irq_work.r79               #
#                                                                            #
#                                                                            #
##############################################################################

E:\Users\alfinant\Documents\Siemens\alfinant\CarControl2\irq_work.c
      1          #include "irq_work.h"
      2          #include "interrupt.h"

   \                                 In segment CODE, align 4, keep-with-next
   \   __??Code32?? __code __interwork __atpcs int disable_interrupts(void)
   \                     disable_interrupts:
   \   00000000   00000FE1           MRS      R0,CPSR
   \   00000004   1F1000E2           AND      R1,R0,#0x1F
   \   00000008   100051E3           CMP      R1,#+16
   \   0000000C   0000001A           BNE      ??disable_interrupts_0
   \   00000010   000000EF           SWI 0            
   \                     ??disable_interrupts_0:
   \   00000014   C01090E3           ORRS     R1,R0,#0xC0
   \   00000018   01F029E1           MSR      CPSR,R1
   \   0000001C   C00000E2           AND      R0,R0,#0xC0
   \   00000020   1EFF2FE1           BX       LR               ;; return

   \                                 In segment CODE, align 4, keep-with-next
   \   __??Code32?? __code __interwork __atpcs void enable_interrupts(int)
   \                     enable_interrupts:
   \   00000000   00100FE1           MRS      R1,CPSR
   \   00000004   1F2001E2           AND      R2,R1,#0x1F
   \   00000008   100052E3           CMP      R2,#+16
   \   0000000C   0000001A           BNE      ??enable_interrupts_0
   \   00000010   000000EF           SWI 0            
   \                     ??enable_interrupts_0:
   \   00000014   C010C1E3           BIC      R1,R1,#0xC0
   \   00000018   010090E1           ORRS     R0,R0,R1
   \   0000001C   00F029E1           MSR      CPSR,R0
   \   00000020   1EFF2FE1           BX       LR               ;; return
      3          

   \                                 In segment CODE, align 4, keep-with-next
      4          int irq_set_prio(int irq_n, int prio)
      5          {
   \                     irq_set_prio:
   \   00000000   30402DE9           PUSH     {R4,R5,LR}
   \   00000004   0040A0E1           MOV      R4,R0
   \   00000008   0150A0E1           MOV      R5,R1
      6            int prv_prio;
      7            
      8            int saved = disable_interrupts();
   \   0000000C   ........           BL       disable_interrupts
      9            int* pa= (int*)(IRQ_PRIO_TAB_BASE + (irq_n << 2));
   \   00000010   C311A0E3           MOV      R1,#-1073741776
   \   00000014   CA1581E3           ORR      R1,R1,#0x32800000
   \   00000018   041181E0           ADD      R1,R1,R4, LSL #+2
     10            prv_prio = (*pa & 0xF);
   \   0000001C   002091E5           LDR      R2,[R1, #+0]
   \   00000020   0F4002E2           AND      R4,R2,#0xF
     11            *pa = (prio & 0xF);
   \   00000024   0F2005E2           AND      R2,R5,#0xF
   \   00000028   002081E5           STR      R2,[R1, #+0]
     12            enable_interrupts(saved);
   \   0000002C   ........           BL       enable_interrupts
     13            
     14            return prv_prio;
   \   00000030   0400A0E1           MOV      R0,R4
   \   00000034   3080BDE8           POP      {R4,R5,PC}       ;; return
     15          }
     16          

   \                                 In segment CODE, align 4, keep-with-next
     17          int irq_get_prio(int irq_n)
     18          {
     19            int* pa= (int*)(IRQ_PRIO_TAB_BASE + (irq_n << 2));
     20            int prio = *pa;
     21            
     22            return (prio & 0xF);
   \                     irq_get_prio:
   \   00000000   C311A0E3           MOV      R1,#-1073741776
   \   00000004   CA1581E3           ORR      R1,R1,#0x32800000
   \   00000008   000191E7           LDR      R0,[R1, +R0, LSL #+2]
   \   0000000C   0F0000E2           AND      R0,R0,#0xF
   \   00000010   1EFF2FE1           BX       LR               ;; return
     23          }
     24          
     25          static int irq_get_state(int irq_n)
     26          {
     27            char* sa= (char*)(IRQ_STATE_TAB_BASE + irq_n);
     28            
     29            return *sa;  
     30          }
     31          
     32          static void irq_set_state(int irq_n, int state)
     33          {
     34            int saved = disable_interrupts();
     35            char* sa=(char*)(IRQ_STATE_TAB_BASE + irq_n);
     36            *sa=state;
     37            enable_interrupts(saved);
     38          }
     39          
     40          static void* irq_get_handler(int irq_n)
     41          {
     42            unsigned* ha= (unsigned*)(IRQ_HANDLER_TAB_BASE + (irq_n << 2));
     43            return (void*)*ha;
     44          }
     45          
     46          static void irq_set_handler(int irq_n, void handler(int))
     47          {
     48            int saved = disable_interrupts();
     49             unsigned *ha= (unsigned*)(IRQ_HANDLER_TAB_BASE + (irq_n << 2));
     50            *ha=(unsigned)handler;
     51            enable_interrupts(saved);
     52          }
     53          

   \                                 In segment CODE, align 4, keep-with-next
     54          void irq_req(int irq_n, int state, int prio, void handler(int), IRQ_DESC* d)
     55          {
   \                     irq_req:
   \   00000000   F0402DE9           PUSH     {R4-R7,LR}
   \   00000004   0150A0E1           MOV      R5,R1
     56            d->state=irq_get_state(0x46);
   \   00000008   2610A0E3           MOV      R1,#+38
   \   0000000C   901D81E3           ORR      R1,R1,#0x2400
   \   00000010   0010D1E5           LDRB     R1,[R1, #+0]
   \   00000014   0040A0E1           MOV      R4,R0
   \   00000018   14009DE5           LDR      R0,[SP, #+20]
   \   0000001C   0260A0E1           MOV      R6,R2
   \   00000020   0010C0E5           STRB     R1,[R0, #+0]
     57            d->prio=irq_get_prio(0x46);
   \   00000024   54109FE5           LDR      R1,??irq_req_0   ;; 0xfffffffff2800148
   \   00000028   0370A0E1           MOV      R7,R3
   \   0000002C   001091E5           LDR      R1,[R1, #+0]
   \   00000030   0F1001E2           AND      R1,R1,#0xF
   \   00000034   0110C0E5           STRB     R1,[R0, #+1]
     58            d->handler=(void(*)(int))irq_get_handler(0x46);
   \   00000038   7410A0E3           MOV      R1,#+116
   \   0000003C   941D81E3           ORR      R1,R1,#0x2500
   \   00000040   001091E5           LDR      R1,[R1, #+0]
   \   00000044   041080E5           STR      R1,[R0, #+4]
     59            
     60            irq_set_handler(irq_n, handler);
   \   00000048   ........           BL       disable_interrupts
   \   0000004C   5C10A0E3           MOV      R1,#+92
   \   00000050   901D81E3           ORR      R1,R1,#0x2400
   \   00000054   047181E7           STR      R7,[R1, +R4, LSL #+2]
   \   00000058   ........           BL       enable_interrupts
     61            irq_set_state(irq_n, state);
   \   0000005C   ........           BL       disable_interrupts
   \   00000060   E010A0E3           MOV      R1,#+224
   \   00000064   8C1D81E3           ORR      R1,R1,#0x2300
   \   00000068   0450C1E7           STRB     R5,[R1, +R4]
   \   0000006C   ........           BL       enable_interrupts
     62            irq_set_prio(irq_n, prio);
   \   00000070   0610A0E1           MOV      R1,R6
   \   00000074   0400A0E1           MOV      R0,R4
   \   00000078   ........           BL       irq_set_prio
     63              
     64          }
   \   0000007C   F080BDE8           POP      {R4-R7,PC}       ;; return
   \                     ??irq_req_0:
   \   00000080   480180F2           DC32     0xfffffffff2800148
     65          

   Maximum stack usage in bytes:

     Function           CSTACK
     --------           ------
     disable_interrupts     0
     enable_interrupts      0
     irq_get_prio           0
     irq_req               20
     irq_set_prio          12


   Segment part sizes:

     Function/Label     Bytes
     --------------     -----
     disable_interrupts   36
     enable_interrupts    36
     irq_set_prio         56
     irq_get_prio         20
     irq_req             132
      Others              20

 
 300 bytes in segment CODE
 
 280 bytes of CODE memory (+ 20 bytes shared)

Errors: none
Warnings: none
