##############################################################################
#                                                                            #
# IAR ARM ANSI C/C++ Compiler V4.42A/W32 EVALUATION    14/Dec/2018  23:20:55 #
# Copyright 1999-2005 IAR Systems. All rights reserved.                      #
#                                                                            #
#    Cpu mode        =  interwork                                            #
#    Endian          =  little                                               #
#    Stack alignment =  4                                                    #
#    Source file     =  E:\Users\alfinant\Documents\Siemens\alfinant\src_iar #
#                       \VK.ELF_C\Chat.c                                     #
#    Command line    =  E:\Users\alfinant\Documents\Siemens\alfinant\src_iar #
#                       \VK.ELF_C\Chat.c -D NEWSGOLD -D DEVELOP -lCN         #
#                       E:\Users\alfinant\Documents\Siemens\alfinant\src_iar #
#                       \VK.ELF_C\Releas_NSG\List\ -la                       #
#                       E:\Users\alfinant\Documents\Siemens\alfinant\src_iar #
#                       \VK.ELF_C\Releas_NSG\List\ -o                        #
#                       E:\Users\alfinant\Documents\Siemens\alfinant\src_iar #
#                       \VK.ELF_C\Releas_NSG\Obj\ -z9 --cpu_mode arm         #
#                       --endian little --cpu ARM926EJ-S --stack_align 4     #
#                       --interwork --diag_suppress Pe301 -e --fpu None      #
#                       --dlib_config E:\Users\alfinant\Documents\Siemens\IA #
#                       R\ARM\LIB\dl5tpainl8n.h -I                           #
#                       E:\Users\alfinant\Documents\Siemens\IAR\ARM\INC\     #
#                       --inline_threshold=2                                 #
#    List file       =  E:\Users\alfinant\Documents\Siemens\alfinant\src_iar #
#                       \VK.ELF_C\Releas_NSG\List\Chat.lst                   #
#    Object file     =  E:\Users\alfinant\Documents\Siemens\alfinant\src_iar #
#                       \VK.ELF_C\Releas_NSG\Obj\Chat.r79                    #
#                                                                            #
#                                                                            #
##############################################################################

E:\Users\alfinant\Documents\Siemens\alfinant\src_iar\VK.ELF_C\Chat.c
      1          #include <siemens\swilib.h>
      2          #include "rect_patcher.h"

   \                                 In segment CODE, align 4, keep-with-next
   \   __??Code32?? __code __interwork __atpcs void patch_header(HEADER_DESC const *)
   \                     patch_header:
   \   00000000   10402DE9           PUSH     {R4,LR}
   \   00000004   0040A0E1           MOV      R4,R0
   \   00000008   0000A0E3           MOV      R0,#+0
   \   0000000C   B000C4E1           STRH     R0,[R4, #+0]
   \   00000010   B200C4E1           STRH     R0,[R4, #+2]
   \   00000014   888100EF           SWI      +33160
   \   00000018   010040E2           SUB      R0,R0,#+1
   \   0000001C   B400C4E1           STRH     R0,[R4, #+4]
   \   00000020   8A8100EF           SWI      +33162
   \   00000024   010040E2           SUB      R0,R0,#+1
   \   00000028   B600C4E1           STRH     R0,[R4, #+6]
   \   0000002C   1080BDE8           POP      {R4,PC}          ;; return
      3          #include "dyn_images.h"
      4          #include "dyn_theme.h"
      5          #include "http.h"
      6          #include "process.h"
      7          #include "vk_api.h"
      8          #include "main.h"
      9          #include "anim_widget.h"
     10          
     11          extern const TTime GMT;
     12          

   \                                 In segment DATA_C, align 4, align-sorted
     13          static const char percent_t[]="%t";
   \                     percent_t:
   \   00000000   257400             DC8 "%t"
   \   00000003   256400             DC8 "%d"
   \   00000006   C2FB00             DC8 "\302\373"
   \   00000009   000000             DC8 0, 0, 0
   \   0000000C   CEF7E8F1F2E8       DC8 "\316\367\350\361\362\350\362\374 \367\340\362"
   \              F2FC20F7E0F2
   \              00          
   \   00000019   000000             DC8 0, 0, 0
   \   0000001C   25643A253032       DC8 "%d:%02d"
   \              6400        
   \   00000024   25742025643A       DC8 "%t %d:%02d"
   \              2530326400  
   \   0000002F   00                 DC8 0
   \   00000030   E2F7E5F0E020       DC8 "\342\367\345\360\340 \342"
   \              E200        
   \   00000038   25642E253032       DC8 "%d.%02d %d:%02d"
   \              642025643A25
   \              30326400    
     14          static const char percent_d[]="%d";
     15          static const char MY_NAME_IN_CHAT[]="Вы";
     16          
     17          static int ec_n;
     18          static int close_by_user;
     19          static int gui_restarted;
     20          void CreateChat(VkDialog *dialog);
     21          
     22          #ifdef ELKA
     23          static int hdr_icon=0x599;
     24          #else
     25          static int hdr_icon=0x5C5;
     26          #endif
     27          
     28          static char utf8_str[256];
     29          
     30          static HEADER_DESC hdr={0,0,0,0,NULL,NULL,LGP_NULL};
     31          
     32          static SOFTKEY_DESC ed_menu_sk[]=
     33          {
     34            {0x0018,0x0000,(int)"Лев"},
     35            {0x0001,0x0000,(int)"Прав"},
     36            {0x003D,0x0000,(int)LGP_DOIT_PIC}
     37          };
     38           
     39          static SOFTKEYSTAB ed_menu_skt=
     40          {
     41            ed_menu_sk,0
     42          };
     43          

   \                                 In segment CODE, align 4, keep-with-next
     44          static void ed_inp_locret(void){}
   \                     ed_inp_locret:
   \   00000000   1EFF2FE1           BX       LR               ;; return
     45          
     46          extern int CreateDebugGUI();
     47          

   \                                 In segment CODE, align 4, keep-with-next
     48          static void ed_options_handler(USR_MENU_ITEM *item)
     49          {
   \                     ed_options_handler:
   \   00000000   00402DE9           PUSH     {LR}
     50            int i=item->cur_item;
     51            
     52            if (item->type==0)
   \   00000004   0010D0E5           LDRB     R1,[R0, #+0]
   \   00000008   000051E3           CMP      R1,#+0
     53            {
     54              switch(i)
   \   0000000C   B810D001           LDRHEQ   R1,[R0, #+8]
   \   00000010   00005103           CMPEQ    R1,#+0
   \   00000014   0080BD18           POPNE    {PC}
     55              {
     56              case 0:
     57                wsprintf(item->ws, percent_t, "Очистить чат");
   \   00000018   ........           LDR      R1,??DataTable7  ;; percent_t
   \   0000001C   0C0090E5           LDR      R0,[R0, #+12]
   \   00000020   0C2081E2           ADD      R2,R1,#+12
   \   00000024   240100EF           SWI      +292
     58                break;
     59              }
     60            }
     61            
     62            if (item->type==1)
     63            {
     64              switch(i)
     65              {
     66              case 0:
     67                if (process==0)
     68                {
     69                  //process=DELETE_DIALOG;
     70                  //SUBPROC((void *)HttpSendReq, messages_deleteDialog(csm->chat->user_id, 10000));
     71                  //GBS_SendMessage(MMI_CEPID, 0x6C20, 0x1D, 0);//при закрытии
     72                  break;
     73                }
     74              }
     75            }
     76            
     77          }
   \   00000028   0080BDE8           POP      {PC}             ;; return
     78          

   \                                 In segment CODE, align 4, keep-with-next
     79          static int ed_inp_onkey(GUI *gui, GUI_MSG *msg)
     80          {
   \                     ed_inp_onkey:
   \   00000000   10402DE9           PUSH     {R4,LR}
     81            EDITCONTROL ec;
     82            int result_length;
     83            
     84            if (msg->keys==0xFFF)//левый софт
   \   00000004   FF20A0E3           MOV      R2,#+255
   \   00000008   F02E82E3           ORR      R2,R2,#0xF00
   \   0000000C   0040A0E1           MOV      R4,R0
   \   00000010   F200D1E1           LDRSH    R0,[R1, #+2]
   \   00000014   020050E1           CMP      R0,R2
   \   00000018   0600001A           BNE      ??ed_inp_onkey_0
     85            {
     86              AnimWidget_Close();
   \   0000001C   ........           _BLF     AnimWidget_Close,??AnimWidget_Close??rA
     87              EDIT_OpenOptionMenuWithUserItems(gui, ed_options_handler, NULL, 1);
   \   00000020   88109FE5           LDR      R1,??ed_inp_onkey_1  ;; ed_options_handler
   \   00000024   0130A0E3           MOV      R3,#+1
   \   00000028   0020A0E3           MOV      R2,#+0
   \   0000002C   0400A0E1           MOV      R0,R4
   \   00000030   E50100EF           SWI      +485
     88              return(-1);
   \   00000034   1B0000EA           B        ??ed_inp_onkey_2
     89            }
     90            
     91            if (msg->keys==1)//закрытие
   \                     ??ed_inp_onkey_0:
   \   00000038   010050E3           CMP      R0,#+1
   \   0000003C   0500001A           BNE      ??ed_inp_onkey_3
     92            {
     93              close_by_user=1;
     94              csm->chat_gui_id=NULL;
   \   00000040   ........           LDR      R0,??DataTable8  ;; csm
   \   00000044   0010A0E3           MOV      R1,#+0
   \   00000048   000090E5           LDR      R0,[R0, #+0]
   \   0000004C   481080E5           STR      R1,[R0, #+72]
     95              return (0);
     96            }
     97            
     98            if ((msg->gbsmsg->msg==KEY_DOWN)||(msg->gbsmsg->msg==LONG_PRESS))
     99            { 
    100              switch(msg->gbsmsg->submess)
    101              {    
    102              case VOL_UP_BUTTON:
    103                EDIT_SetFocus(gui, 1);
    104                return(-1);
    105                
    106              case VOL_DOWN_BUTTON:
    107                EDIT_SetFocus(gui, ec_n);
    108                return(-1);  
    109               
    110              case GREEN_BUTTON:
    111          /*      if (process==0)
    112                {
    113                  if (ExtractEditControl(gui, ec_n, &ec))
    114                  {
    115                    if (wstrlen(ec.pWS))
    116                    {
    117                      ws_2utf8(ec.pWS, utf8_str, &result_length, 255);
    118                      process=CHECK_NEW_MESSAGES;
    119                      char* params=execute_sendAndGet(csm->chat->user_id, utf8_str, last_message_id);
    120                      SUBPROC((void *)HttpSendPostReq, API_METHOD_EXECUTE_SEND_URL, params);          
    121                    }
    122                  }
    123                }  
    124                else
    125                  ShowMSG(1, (int)"Повторите позже...");
    126                */
    127              break;
    128            }
    129            }
    130            return(0);//Do standart keys
   \                     ??ed_inp_onkey_4:
   \   00000050   0000A0E3           MOV      R0,#+0
   \   00000054   1080BDE8           POP      {R4,PC}          ;; return
   \                     ??ed_inp_onkey_3:
   \   00000058   040091E5           LDR      R0,[R1, #+4]
   \   0000005C   9320A0E3           MOV      R2,#+147
   \   00000060   041090E5           LDR      R1,[R0, #+4]
   \   00000064   402F82E3           ORR      R2,R2,#0x100
   \   00000068   020051E1           CMP      R1,R2
   \   0000006C   02208212           ADDNE    R2,R2,#+2
   \   00000070   02005111           CMPNE    R1,R2
   \   00000074   F5FFFF1A           BNE      ??ed_inp_onkey_4
   \   00000078   080090E5           LDR      R0,[R0, #+8]
   \   0000007C   0D0050E2           SUBS     R0,R0,#+13
   \   00000080   0200000A           BEQ      ??ed_inp_onkey_5
   \   00000084   010050E2           SUBS     R0,R0,#+1
   \   00000088   0200000A           BEQ      ??ed_inp_onkey_6
   \   0000008C   EFFFFFEA           B        ??ed_inp_onkey_4
   \                     ??ed_inp_onkey_5:
   \   00000090   0110A0E3           MOV      R1,#+1
   \   00000094   010000EA           B        ??ed_inp_onkey_7
   \                     ??ed_inp_onkey_6:
   \   00000098   14009FE5           LDR      R0,??ed_inp_onkey_1+0x4  ;; hdr + 20
   \   0000009C   001090E5           LDR      R1,[R0, #+0]
   \                     ??ed_inp_onkey_7:
   \   000000A0   0400A0E1           MOV      R0,R4
   \   000000A4   9B0100EF           SWI      +411
   \                     ??ed_inp_onkey_2:
   \   000000A8   0000E0E3           MVN      R0,#+0
   \   000000AC   1080BDE8           POP      {R4,PC}
   \                     ??ed_inp_onkey_1:
   \   000000B0   ........           DC32     ed_options_handler
   \   000000B4   ........           DC32     hdr + 20
    131            //1: close  
    132          }
    133          

   \                                 In segment CODE, align 4, keep-with-next
    134          static void ed_inp_ghook(GUI *gui, int cmd)
    135          {
   \                     ed_inp_ghook:
   \   00000000   F0402DE9           PUSH     {R4-R7,LR}
    136            static SOFTKEY_DESC sk={0x0FFF,0x0000,(int)"Опции"};
    137            
    138            if (cmd==TI_CMD_CREATE)
   \   00000004   ........           LDR      R5,??DataTable6  ;; hdr
   \   00000008   0040A0E1           MOV      R4,R0
   \   0000000C   020051E3           CMP      R1,#+2
   \   00000010   2500001A           BNE      ??ed_inp_ghook_0
    139            {
    140              EDIT_SetFocus(gui, ec_n);
   \   00000014   141095E5           LDR      R1,[R5, #+20]
   \   00000018   9B0100EF           SWI      +411
    141              
    142              hdr.icon=&hdr_icon;
   \   0000001C   180085E2           ADD      R0,R5,#+24
   \   00000020   080085E5           STR      R0,[R5, #+8]
    143              void* hdr_pointer=GetHeaderPointer(gui);
   \   00000024   0400A0E1           MOV      R0,R4
   \   00000028   AE0200EF           SWI      +686
   \   0000002C   0040A0E1           MOV      R4,R0
    144              WSHDR* ws=AllocWS(32);
   \   00000030   2000A0E3           MOV      R0,#+32
   \   00000034   250100EF           SWI      +293
   \   00000038   0050A0E1           MOV      R5,R0
   \   0000003C   ........           LDR      R0,??DataTable8  ;; csm
   \   00000040   000090E5           LDR      R0,[R0, #+0]
   \   00000044   4C6090E5           LDR      R6,[R0, #+76]
    145              VkDialog *dialog = csm->chat;
    146              VkUser *user = csm->chat->user;
   \   00000048   1C7096E5           LDR      R7,[R6, #+28]
    147              
    148              //wsAppendChar(ws, UTF16_ENA_CENTER);
    149              if (user && wstrlen(user->first_name))
   \   0000004C   000057E3           CMP      R7,#+0
   \   00000050   0700000A           BEQ      ??ed_inp_ghook_1
   \   00000054   0C0097E5           LDR      R0,[R7, #+12]
   \   00000058   230100EF           SWI      +291
   \   0000005C   000050E3           CMP      R0,#+0
   \   00000060   0300000A           BEQ      ??ed_inp_ghook_1
    150                wstrcat(ws, user->first_name);
   \   00000064   0C1097E5           LDR      R1,[R7, #+12]
   \   00000068   0500A0E1           MOV      R0,R5
   \   0000006C   210100EF           SWI      +289
   \   00000070   030000EA           B        ??ed_inp_ghook_2
    151              else
    152                wstrcatprintf(ws, percent_d, dialog->user_id);
   \                     ??ed_inp_ghook_1:
   \   00000074   082096E5           LDR      R2,[R6, #+8]
   \   00000078   A4109FE5           LDR      R1,??ed_inp_ghook_3  ;; percent_t + 3
   \   0000007C   0500A0E1           MOV      R0,R5
   \   00000080   160200EF           SWI      +534
    153              
    154              SetHeaderText(hdr_pointer, ws, malloc_adr(), mfree_adr());
   \                     ??ed_inp_ghook_2:
   \   00000084   158000EF           SWI      +32789
   \   00000088   0060A0E1           MOV      R6,R0
   \   0000008C   148000EF           SWI      +32788
   \   00000090   0630A0E1           MOV      R3,R6
   \   00000094   0020A0E1           MOV      R2,R0
   \   00000098   0510A0E1           MOV      R1,R5
   \   0000009C   0400A0E1           MOV      R0,R4
   \   000000A0   AF0200EF           SWI      +687
    155              
    156              LoadDynTheme();
   \   000000A4   ........           _BLF     LoadDynTheme,??LoadDynTheme??rA
    157              //LoadDynImages();
    158              
    159              if (gui_restarted==0)
   \   000000A8   F080BDE8           POP      {R4-R7,PC}
    160              {
    161                if (process == 0)
    162                {
    163                  //process=LOAD_HISTORY;
    164                 // SUBPROC((void *)HttpSendReq, execute_getHistory(csm->chat_c->user_id, 10));
    165                  
    166                 // AnimWidget_Wait_body();
    167                }
    168              }
    169            }
    170               
    171            if (cmd==TI_CMD_UNFOCUS)
   \                     ??ed_inp_ghook_0:
   \   000000AC   090051E3           CMP      R1,#+9
   \   000000B0   0300001A           BNE      ??ed_inp_ghook_4
    172            {
    173              AnimWidget_Close();
   \   000000B4   ........           _BLF     AnimWidget_Close,??AnimWidget_Close??rA
    174              
    175              DisableDynImages();
   \   000000B8   ........           _BLF     DisableDynImages,??DisableDynImages??rA
    176              DisableDynTheme();
   \   000000BC   ........           _BLF     DisableDynTheme,??DisableDynTheme??rA
   \   000000C0   F080BDE8           POP      {R4-R7,PC}
    177            }
    178             
    179            if (cmd==TI_CMD_FOCUS) 
   \                     ??ed_inp_ghook_4:
   \   000000C4   0A0051E3           CMP      R1,#+10
   \   000000C8   0800001A           BNE      ??ed_inp_ghook_5
    180            {
    181              //EDIT_SetFocus(data, ec_n);
    182              //EDIT_SetCursorPos(data, ec_n);
    183              
    184              if (process==LOAD_HISTORY)
   \   000000CC   54009FE5           LDR      R0,??ed_inp_ghook_3+0x4  ;; process
   \   000000D0   000090E5           LDR      R0,[R0, #+0]
   \   000000D4   0F0050E3           CMP      R0,#+15
   \   000000D8   0000001A           BNE      ??ed_inp_ghook_6
    185                AnimWidget_Wait_center();   
   \   000000DC   ........           _BLF     AnimWidget_Wait_center,??AnimWidget_Wait_center??rA
    186                  
    187              EnableDynImages();
   \                     ??ed_inp_ghook_6:
   \   000000E0   ........           _BLF     EnableDynImages,??EnableDynImages??rA
    188              EnableDynTheme();  
   \   000000E4   ........           _BLF     EnableDynTheme,??EnableDynTheme??rA
    189              DisableIDLETMR();
   \   000000E8   7F0100EF           SWI      +383
   \   000000EC   F080BDE8           POP      {R4-R7,PC}
    190            }  
    191            
    192            if (cmd==TI_CMD_SUBFOCUS_CHANGE)
    193            {
    194            }
    195            
    196            if (cmd==TI_CMD_REDRAW)
   \                     ??ed_inp_ghook_5:
   \   000000F0   070051E3           CMP      R1,#+7
   \   000000F4   0500001A           BNE      ??ed_inp_ghook_7
    197            {
    198              EnableDynImages(); 
   \   000000F8   ........           _BLF     EnableDynImages,??EnableDynImages??rA
    199              SetSoftKey(gui, &sk, 0);//0-left soft
   \   000000FC   0020A0E3           MOV      R2,#+0
   \   00000100   1C1085E2           ADD      R1,R5,#+28
   \   00000104   0400A0E1           MOV      R0,R4
   \   00000108   680100EF           SWI      +360
   \   0000010C   F080BDE8           POP      {R4-R7,PC}
    200            }
    201            
    202            if (cmd==TI_CMD_DESTROY)
   \                     ??ed_inp_ghook_7:
   \   00000110   030051E3           CMP      R1,#+3
   \   00000114   F080BD18           POPNE    {R4-R7,PC}
    203            {
    204              DisableDynTheme();
   \   00000118   ........           _BLF     DisableDynTheme,??DisableDynTheme??rA
    205              DisableDynImages();
   \   0000011C   ........           _BLF     DisableDynImages,??DisableDynImages??rA
    206              
    207              //если чат был закрыт вручную
    208              if (close_by_user)
    209              {
    210                //if (csm->chat_c->msglist==NULL)//значит история сообщений очищена.Удаляем контакт из списка
    211                //  DeleteContact(&csm->dialogs_list, csm->chat_c->user_id);
    212              }
    213            }
    214            
    215          }
   \   00000120   F080BDE8           POP      {R4-R7,PC}       ;; return
   \                     ??ed_inp_ghook_3:
   \   00000124   ........           DC32     percent_t + 3
   \   00000128   ........           DC32     process

   \                                 In segment DATA_I, align 4, align-sorted
   \                     hdr:
   \   00000000                      DS8 20
   \   00000014                      REQUIRE `?<Initializer for hdr>`
   \   00000014                      DS8 4
   \   00000018                      REQUIRE `?<Initializer for ec_n>`
   \   00000018                      DS8 4
   \   0000001C                      REQUIRE `?<Initializer for hdr_icon>`
   \   0000001C                      DS8 8
   \   00000024                      REQUIRE `?<Initializer for sk>`
   \   00000024                      DS8 56
   \   0000005C                      REQUIRE `?<Initializer for ed_inp_desc>`

   \                                 In segment DATA_I, align 4, align-sorted
   \                     ed_menu_sk:
   \   00000000                      DS8 24
   \   00000018                      REQUIRE `?<Initializer for ed_menu_sk>`

   \                                 In segment DATA_I, align 4, align-sorted
   \                     ed_menu_skt:
   \   00000000                      DS8 8
   \   00000008                      REQUIRE `?<Initializer for ed_menu_skt>`
    216          
    217          static INPUTDIA_DESC ed_inp_desc=
    218          {
    219            1,
    220            ed_inp_onkey,
    221            ed_inp_ghook,
    222            (void *)ed_inp_locret,
    223            0,
    224            &ed_menu_skt,
    225          #ifdef ELKA  
    226            {1,56,238,287},
    227          #else
    228            {1,23,130,154},
    229          #endif
    230            FONT_SMALL,
    231            100,
    232            101,
    233            0,
    234            0,
    235            0x40000000
    236          };
    237          

   \                                 In segment CODE, align 4, keep-with-next
    238          void CreateChat(VkDialog *dialog)
    239          {
   \                     CreateChat:
   \   00000000   F04F2DE9           PUSH     {R4-R11,LR}
   \   00000004   48DE4DE2           SUB      SP,SP,#+1152
   \   00000008   00B0B0E1           MOVS     R11,R0
    240            void* ma;
    241            void *eq;
    242            EDITCONTROL ec;
    243            EDITC_OPTIONS ec_options; 
    244            VkMsg *msg;
    245            
    246            TDate t_date;
    247            TTime time;
    248            TDate s_date;
    249            int timestap; 
    250            TDate phone_date;
    251            TTime phone_time; 
    252            
    253            WSHDR ws;
    254            unsigned short wsbody[512];
    255           
    256            if (dialog == NULL)
   \   0000000C   0201000A           BEQ      ??CreateChat_0
    257              return;
    258          
    259            VkUser *user = dialog->user;
   \   00000010   ........           LDR      R0,??DataTable8  ;; csm
   \   00000014   1C109BE5           LDR      R1,[R11, #+28]
   \   00000018   000090E5           LDR      R0,[R0, #+0]
   \   0000001C   14108DE5           STR      R1,[SP, #+20]
   \   00000020   4CB080E5           STR      R11,[R0, #+76]
    260            
    261            int color=1;//черный
    262            int font=1;
    263          
    264            csm->chat = dialog;
    265            
    266            close_by_user=0;
    267            gui_restarted=0;
    268            
    269            if(csm->chat_gui_id)//закрываем до этого созданный гуй
   \   00000024   480090E5           LDR      R0,[R0, #+72]
   \   00000028   0040A0E3           MOV      R4,#+0
   \   0000002C   000050E3           CMP      R0,#+0
   \   00000030   0400000A           BEQ      ??CreateChat_1
    270            {
    271              GeneralFunc_flag1(csm->chat_gui_id, 1);
   \   00000034   0110A0E3           MOV      R1,#+1
   \   00000038   3D0100EF           SWI      +317
    272              csm->chat_gui_id=NULL;
   \   0000003C   ........           LDR      R0,??DataTable8  ;; csm
   \   00000040   000090E5           LDR      R0,[R0, #+0]
   \   00000044   484080E5           STR      R4,[R0, #+72]
    273              gui_restarted=1;
    274            }
    275            
    276            CreateLocalWS(&ws, wsbody, 511);
    277            
    278            ec_n=0;//обнулить счетчик эдитконтролов
   \                     ??CreateChat_1:
   \   00000048   ........           LDR      R5,??DataTable6  ;; hdr
   \   0000004C   FF20A0E3           MOV      R2,#+255
   \   00000050   402F82E3           ORR      R2,R2,#0x100
   \   00000054   80108DE2           ADD      R1,SP,#+128
   \   00000058   0D00A0E1           MOV      R0,SP
   \   0000005C   270100EF           SWI      +295
   \   00000060   144085E5           STR      R4,[R5, #+20]
    279            PrepareEditControl(&ec);
   \   00000064   54008DE2           ADD      R0,SP,#+84
   \   00000068   640100EF           SWI      +356
    280            ma=malloc_adr();
   \   0000006C   148000EF           SWI      +32788
   \   00000070   0060A0E1           MOV      R6,R0
    281            eq=AllocEQueue(ma,mfree_adr());
   \   00000074   158000EF           SWI      +32789
   \   00000078   0010A0E1           MOV      R1,R0
   \   0000007C   0600A0E1           MOV      R0,R6
   \   00000080   630100EF           SWI      +355
   \   00000084   0070A0E1           MOV      R7,R0
    282          
    283            msg = get_DialogMsg(dialog);
   \   00000088   0B00A0E1           MOV      R0,R11
   \   0000008C   ........           _BLF     get_DialogMsg,??get_DialogMsg??rA
   \   00000090   0080A0E1           MOV      R8,R0
    284          
    285            
    286          //  while (msg)
    287          //  {
    288              wsbody[0]=0;
   \   00000094   B048CDE1           STRH     R4,[SP, #+128]
    289              
    290              wsAppendChar(&ws, UTF16_FONT_SMALL_BOLD);
   \   00000098   1310A0E3           MOV      R1,#+19
   \   0000009C   E01C81E3           ORR      R1,R1,#0xE000
   \   000000A0   0D00A0E1           MOV      R0,SP
   \   000000A4   1C0000EF           SWI      +28
    291              
    292              if (msg->out)
   \   000000A8   1C0098E5           LDR      R0,[R8, #+28]
   \   000000AC   0690A0E3           MOV      R9,#+6
   \   000000B0   E09C89E3           ORR      R9,R9,#0xE000
   \   000000B4   000050E3           CMP      R0,#+0
   \   000000B8   0910A0E1           MOV      R1,R9
   \   000000BC   0D00A0E1           MOV      R0,SP
   \   000000C0   0500000A           BEQ      ??CreateChat_2
    293              {
    294                wsAppendChar(&ws, UTF16_INK_RGBA);
   \   000000C4   1C0000EF           SWI      +28
    295                wsAppendChar(&ws, 0xFF00);//RG
   \   000000C8   FF1CA0E3           MOV      R1,#+65280
   \   000000CC   0D00A0E1           MOV      R0,SP
   \   000000D0   1C0000EF           SWI      +28
    296                wsAppendChar(&ws, 0x0064);//BA - red
   \   000000D4   6410A0E3           MOV      R1,#+100
   \   000000D8   060000EA           B        ??CreateChat_3
    297              }
    298              else
    299              {
    300                wsAppendChar(&ws, UTF16_INK_RGBA);
   \                     ??CreateChat_2:
   \   000000DC   1C0000EF           SWI      +28
    301                wsAppendChar(&ws, 0x5D80);//RG
   \   000000E0   8010A0E3           MOV      R1,#+128
   \   000000E4   5D1C81E3           ORR      R1,R1,#0x5D00
   \   000000E8   0D00A0E1           MOV      R0,SP
   \   000000EC   1C0000EF           SWI      +28
    302                wsAppendChar(&ws, 0xA664);//BA - вк синий
   \   000000F0   6410A0E3           MOV      R1,#+100
   \   000000F4   A61C81E3           ORR      R1,R1,#0xA600
    303              }
    304              
    305              if (msg->out)
   \                     ??CreateChat_3:
   \   000000F8   ........           LDR      R10,??DataTable7  ;; percent_t
   \   000000FC   0D00A0E1           MOV      R0,SP
   \   00000100   1C0000EF           SWI      +28
   \   00000104   1C0098E5           LDR      R0,[R8, #+28]
   \   00000108   000050E3           CMP      R0,#+0
    306                wstrcatprintf(&ws, percent_t, MY_NAME_IN_CHAT);
   \   0000010C   06208A12           ADDNE    R2,R10,#+6
   \   00000110   0A10A011           MOVNE    R1,R10
   \   00000114   0D00001A           BNE      ??CreateChat_4
    307              else
    308              {
    309                if (user && wstrlen(user->first_name))
   \   00000118   14009DE5           LDR      R0,[SP, #+20]
   \   0000011C   000050E3           CMP      R0,#+0
   \   00000120   0800000A           BEQ      ??CreateChat_5
   \   00000124   0C0090E5           LDR      R0,[R0, #+12]
   \   00000128   230100EF           SWI      +291
   \   0000012C   000050E3           CMP      R0,#+0
   \   00000130   0400000A           BEQ      ??CreateChat_5
    310                  wstrcat(&ws, user->first_name);
   \   00000134   14009DE5           LDR      R0,[SP, #+20]
   \   00000138   0C1090E5           LDR      R1,[R0, #+12]
   \   0000013C   0D00A0E1           MOV      R0,SP
   \   00000140   210100EF           SWI      +289
   \   00000144   030000EA           B        ??CreateChat_6
    311                else
    312                  wstrcatprintf(&ws, percent_d, dialog->user_id);
   \                     ??CreateChat_5:
   \   00000148   08209BE5           LDR      R2,[R11, #+8]
   \   0000014C   03108AE2           ADD      R1,R10,#+3
   \                     ??CreateChat_4:
   \   00000150   0D00A0E1           MOV      R0,SP
   \   00000154   160200EF           SWI      +534
    313              }
    314              
    315              wsAppendChar(&ws, ':');
   \                     ??CreateChat_6:
   \   00000158   3A10A0E3           MOV      R1,#+58
   \   0000015C   0D00A0E1           MOV      R0,SP
   \   00000160   1C0000EF           SWI      +28
    316              wsAppendChar(&ws, ' ');
   \   00000164   2010A0E3           MOV      R1,#+32
   \   00000168   0D00A0E1           MOV      R0,SP
   \   0000016C   1C0000EF           SWI      +28
    317              
    318              wsAppendChar(&ws, UTF16_FONT_SMALL);
   \   00000170   0C1089E2           ADD      R1,R9,#+12
   \   00000174   0D00A0E1           MOV      R0,SP
   \   00000178   1C0000EF           SWI      +28
    319              wsAppendChar(&ws, UTF16_ALIGN_RIGHT);
   \   0000017C   171089E2           ADD      R1,R9,#+23
   \   00000180   0D00A0E1           MOV      R0,SP
   \   00000184   1C0000EF           SWI      +28
    320              wsAppendChar(&ws, UTF16_INK_RGBA); 
   \   00000188   0910A0E1           MOV      R1,R9
   \   0000018C   0D00A0E1           MOV      R0,SP
   \   00000190   1C0000EF           SWI      +28
    321              wsAppendChar(&ws, 0x8080);//RG
   \   00000194   8010A0E3           MOV      R1,#+128
   \   00000198   801C81E3           ORR      R1,R1,#0x8000
   \   0000019C   0D00A0E1           MOV      R0,SP
   \   000001A0   1C0000EF           SWI      +28
    322              wsAppendChar(&ws, 0x8064);//BA - серый
   \   000001A4   6410A0E3           MOV      R1,#+100
   \   000001A8   801C81E3           ORR      R1,R1,#0x8000
   \   000001AC   0D00A0E1           MOV      R0,SP
   \   000001B0   1C0000EF           SWI      +28
    323              
    324              //TDateTimeSettings* time_set=RamDateTimeSettings();
    325              //int time_zone=GetTimeZoneShift(NULL, NULL, time_set->timeZone) * 60;
    326              
    327              GetDateTime(&phone_date, &phone_time);
   \   000001B4   4C108DE2           ADD      R1,SP,#+76
   \   000001B8   20008DE2           ADD      R0,SP,#+32
   \   000001BC   B40000EF           SWI      +180
    328              
    329              timestap=msg->date + (GMT.hour*3600)+(GMT.min*60);
   \   000001C0   5C129FE5           LDR      R1,??CreateChat_7  ;; GMT
   \   000001C4   0C2098E5           LDR      R2,[R8, #+12]
   \   000001C8   0030D1E5           LDRB     R3,[R1, #+0]
   \   000001CC   0110D1E5           LDRB     R1,[R1, #+1]
   \   000001D0   E1BEA0E3           MOV      R11,#+3600
   \   000001D4   9B2322E0           MLA      R2,R11,R3,R2
   \   000001D8   3C30A0E3           MOV      R3,#+60
   \   000001DC   932121E0           MLA      R1,R3,R1,R2
    330              s_date.year=1970;
    331              s_date.month=1;
   \   000001E0   0100A0E3           MOV      R0,#+1
   \   000001E4   30108DE5           STR      R1,[SP, #+48]
   \   000001E8   B210A0E3           MOV      R1,#+178
   \   000001EC   701E81E3           ORR      R1,R1,#0x700
   \   000001F0   34108DE5           STR      R1,[SP, #+52]
   \   000001F4   3800CDE5           STRB     R0,[SP, #+56]
    332              s_date.day=1;
   \   000001F8   3900CDE5           STRB     R0,[SP, #+57]
    333              GetDateTimeFromSeconds(&timestap, &t_date, &time, &s_date);
   \   000001FC   34308DE2           ADD      R3,SP,#+52
   \   00000200   28208DE2           ADD      R2,SP,#+40
   \   00000204   18108DE2           ADD      R1,SP,#+24
   \   00000208   30008DE2           ADD      R0,SP,#+48
   \   0000020C   C90200EF           SWI      +713
    334              
    335              if (phone_date.day==t_date.day && phone_date.month==t_date.month && phone_date.year==t_date.year)
   \   00000210   1D20DDE5           LDRB     R2,[SP, #+29]
   \   00000214   2510DDE5           LDRB     R1,[SP, #+37]
   \   00000218   020051E1           CMP      R1,R2
   \   0000021C   2400DD05           LDRBEQ   R0,[SP, #+36]
   \   00000220   1C30DD05           LDRBEQ   R3,[SP, #+28]
   \   00000224   03005001           CMPEQ    R0,R3
   \   00000228   20009D05           LDREQ    R0,[SP, #+32]
   \   0000022C   18309D05           LDREQ    R3,[SP, #+24]
   \   00000230   03005001           CMPEQ    R0,R3
   \   00000234   0500001A           BNE      ??CreateChat_8
    336                wstrcatprintf(&ws, "%d:%02d", time.hour, time.min);
   \   00000238   2930DDE5           LDRB     R3,[SP, #+41]
   \   0000023C   2820DDE5           LDRB     R2,[SP, #+40]
   \   00000240   1C108AE2           ADD      R1,R10,#+28
   \   00000244   0D00A0E1           MOV      R0,SP
   \   00000248   160200EF           SWI      +534
   \   0000024C   180000EA           B        ??CreateChat_9
    337              else
    338                if ((phone_date.day-1)==t_date.day && phone_date.month==t_date.month && phone_date.year==t_date.year)
   \                     ??CreateChat_8:
   \   00000250   1C00DDE5           LDRB     R0,[SP, #+28]
   \   00000254   29B0DDE5           LDRB     R11,[SP, #+41]
   \   00000258   2830DDE5           LDRB     R3,[SP, #+40]
   \   0000025C   011041E2           SUB      R1,R1,#+1
   \   00000260   020051E1           CMP      R1,R2
   \   00000264   2410DD05           LDRBEQ   R1,[SP, #+36]
   \   00000268   00005101           CMPEQ    R1,R0
   \   0000026C   20109D05           LDREQ    R1,[SP, #+32]
   \   00000270   18C09D05           LDREQ    R12,[SP, #+24]
   \   00000274   0C005101           CMPEQ    R1,R12
   \   00000278   0600001A           BNE      ??CreateChat_10
    339                  wstrcatprintf(&ws, "%t %d:%02d", "вчера в", time.hour, time.min);
   \   0000027C   00082DE9           PUSH     {R11}
   \   00000280   30208AE2           ADD      R2,R10,#+48
   \   00000284   24108AE2           ADD      R1,R10,#+36
   \   00000288   04008DE2           ADD      R0,SP,#+4
   \   0000028C   160200EF           SWI      +534
   \   00000290   04D08DE2           ADD      SP,SP,#+4
   \   00000294   060000EA           B        ??CreateChat_9
    340              else
    341                wstrcatprintf(&ws, "%d.%02d %d:%02d", t_date.day, t_date.month, time.hour, time.min);    
   \                     ??CreateChat_10:
   \   00000298   00082DE9           PUSH     {R11}
   \   0000029C   08002DE9           PUSH     {R3}
   \   000002A0   38108AE2           ADD      R1,R10,#+56
   \   000002A4   0030A0E1           MOV      R3,R0
   \   000002A8   08008DE2           ADD      R0,SP,#+8
   \   000002AC   160200EF           SWI      +534
   \   000002B0   08D08DE2           ADD      SP,SP,#+8
    342              
    343              ConstructEditControl(&ec, ECT_HEADER, ECF_APPEND_EOL, &ws, wstrlen(&ws));
   \                     ??CreateChat_9:
   \   000002B4   0D00A0E1           MOV      R0,SP
   \   000002B8   230100EF           SWI      +291
   \   000002BC   01002DE9           PUSH     {R0}
   \   000002C0   04308DE2           ADD      R3,SP,#+4
   \   000002C4   4020A0E3           MOV      R2,#+64
   \   000002C8   0110A0E3           MOV      R1,#+1
   \   000002CC   58008DE2           ADD      R0,SP,#+88
   \   000002D0   650100EF           SWI      +357
    344              ec_n=AddEditControlToEditQend(eq, &ec, ma);    
   \   000002D4   0620A0E1           MOV      R2,R6
   \   000002D8   58108DE2           ADD      R1,SP,#+88
   \   000002DC   0700A0E1           MOV      R0,R7
   \   000002E0   660100EF           SWI      +358
   \   000002E4   140085E5           STR      R0,[R5, #+20]
    345              
    346              wsbody[0]=0;
   \   000002E8   B448CDE1           STRH     R4,[SP, #+132]
    347              
    348              wsAppendChar(&ws, UTF16_ALIGN_LEFT);
   \   000002EC   161089E2           ADD      R1,R9,#+22
   \   000002F0   04008DE2           ADD      R0,SP,#+4
   \   000002F4   1C0000EF           SWI      +28
    349              wsAppendChar(&ws, UTF16_INK_RGBA);
   \   000002F8   0910A0E1           MOV      R1,R9
   \   000002FC   04008DE2           ADD      R0,SP,#+4
   \   00000300   1C0000EF           SWI      +28
    350              wsAppendChar(&ws, 0x0000);//RG
   \   00000304   0010A0E3           MOV      R1,#+0
   \   00000308   04008DE2           ADD      R0,SP,#+4
   \   0000030C   1C0000EF           SWI      +28
    351              wsAppendChar(&ws, 0x0064);//BA - черный}  
   \   00000310   6410A0E3           MOV      R1,#+100
   \   00000314   04008DE2           ADD      R0,SP,#+4
   \   00000318   1C0000EF           SWI      +28
    352              
    353              if (msg->text)
   \   0000031C   181098E5           LDR      R1,[R8, #+24]
   \   00000320   04D08DE2           ADD      SP,SP,#+4
   \   00000324   000051E3           CMP      R1,#+0
   \   00000328   0100000A           BEQ      ??CreateChat_11
    354                wstrcat(&ws, msg->text);
   \   0000032C   0D00A0E1           MOV      R0,SP
   \   00000330   210100EF           SWI      +289
    355              
    356              ConstructEditControl(&ec, ECT_NORMAL_TEXT, ECF_APPEND_EOL, &ws, wstrlen(&ws));
   \                     ??CreateChat_11:
   \   00000334   0D00A0E1           MOV      R0,SP
   \   00000338   230100EF           SWI      +291
   \   0000033C   01002DE9           PUSH     {R0}
   \   00000340   04308DE2           ADD      R3,SP,#+4
   \   00000344   4020A0E3           MOV      R2,#+64
   \   00000348   0310A0E3           MOV      R1,#+3
   \   0000034C   58008DE2           ADD      R0,SP,#+88
   \   00000350   650100EF           SWI      +357
    357              PrepareEditCOptions(&ec_options);
   \   00000354   40008DE2           ADD      R0,SP,#+64
   \   00000358   C80100EF           SWI      +456
    358              SetFontToEditCOptions(&ec_options, font);
   \   0000035C   0110A0E3           MOV      R1,#+1
   \   00000360   40008DE2           ADD      R0,SP,#+64
   \   00000364   CA0100EF           SWI      +458
    359              CopyOptionsToEditControl(&ec,&ec_options);
   \   00000368   40108DE2           ADD      R1,SP,#+64
   \   0000036C   58008DE2           ADD      R0,SP,#+88
   \   00000370   CE0100EF           SWI      +462
    360              ec_n=AddEditControlToEditQend(eq, &ec, ma);
   \   00000374   0620A0E1           MOV      R2,R6
   \   00000378   58108DE2           ADD      R1,SP,#+88
   \   0000037C   0700A0E1           MOV      R0,R7
   \   00000380   660100EF           SWI      +358
   \   00000384   140085E5           STR      R0,[R5, #+20]
    361              
    362          //  }
    363            
    364            wsbody[0]=0;
   \   00000388   B448CDE1           STRH     R4,[SP, #+132]
    365            ConstructEditControl(&ec,ECT_NORMAL_TEXT, ECF_NORMAL_STR | ECF_APPEND_EOL, &ws, 256);
   \   0000038C   400FA0E3           MOV      R0,#+256
   \   00000390   01002DE9           PUSH     {R0}
   \   00000394   08308DE2           ADD      R3,SP,#+8
   \   00000398   4020A0E3           MOV      R2,#+64
   \   0000039C   0310A0E3           MOV      R1,#+3
   \   000003A0   5C008DE2           ADD      R0,SP,#+92
   \   000003A4   650100EF           SWI      +357
    366            PrepareEditCOptions(&ec_options);
   \   000003A8   44008DE2           ADD      R0,SP,#+68
   \   000003AC   C80100EF           SWI      +456
    367            SetPenColorToEditCOptions(&ec_options,color);
   \   000003B0   0110A0E3           MOV      R1,#+1
   \   000003B4   44008DE2           ADD      R0,SP,#+68
   \   000003B8   CC0100EF           SWI      +460
    368            SetFontToEditCOptions(&ec_options, font);
   \   000003BC   0110A0E3           MOV      R1,#+1
   \   000003C0   44008DE2           ADD      R0,SP,#+68
   \   000003C4   CA0100EF           SWI      +458
    369            CopyOptionsToEditControl(&ec,&ec_options);   
   \   000003C8   44108DE2           ADD      R1,SP,#+68
   \   000003CC   5C008DE2           ADD      R0,SP,#+92
   \   000003D0   CE0100EF           SWI      +462
    370            ec_n=AddEditControlToEditQend(eq, &ec, ma);
   \   000003D4   0620A0E1           MOV      R2,R6
   \   000003D8   5C108DE2           ADD      R1,SP,#+92
   \   000003DC   0700A0E1           MOV      R0,R7
   \   000003E0   660100EF           SWI      +358
   \   000003E4   140085E5           STR      R0,[R5, #+20]
    371            
    372            patch_header(&hdr);
   \   000003E8   0500A0E1           MOV      R0,R5
   \   000003EC   ........           _BLF     patch_header,??patch_header??rA
    373            csm->chat_gui_id=CreateInputTextDialog(&ed_inp_desc, &hdr, eq, 1, NULL);
   \   000003F0   0000A0E3           MOV      R0,#+0
   \   000003F4   01002DE9           PUSH     {R0}
   \   000003F8   0130A0E3           MOV      R3,#+1
   \   000003FC   0720A0E1           MOV      R2,R7
   \   00000400   0510A0E1           MOV      R1,R5
   \   00000404   240085E2           ADD      R0,R5,#+36
   \   00000408   670100EF           SWI      +359
   \   0000040C   ........           LDR      R1,??DataTable8  ;; csm
   \   00000410   001091E5           LDR      R1,[R1, #+0]
   \   00000414   480081E5           STR      R0,[R1, #+72]
    374          }
   \   00000418   0CD08DE2           ADD      SP,SP,#+12
   \                     ??CreateChat_0:
   \   0000041C   48DE8DE2           ADD      SP,SP,#+1152     ;; stack cleaning
   \   00000420   F08FBDE8           POP      {R4-R11,PC}      ;; return
   \                     ??CreateChat_7:
   \   00000424   ........           DC32     GMT

   \                                 In segment CODE, align 4, keep-with-next
   \                     ??DataTable6:
   \   00000000   ........           DC32     hdr

   \                                 In segment CODE, align 4, keep-with-next
   \                     ??DataTable7:
   \   00000000   ........           DC32     percent_t

   \                                 In segment CODE, align 4, keep-with-next
   \                     ??DataTable8:
   \   00000000   ........           DC32     csm

   \                                 In segment DATA_ID, align 4, align-sorted
   \                     `?<Initializer for hdr>`:
   \   00000000   000000000000       DC16 0, 0, 0, 0
   \              0000        
   \   00000008   000000000000       DC32 0H, 0, 2147483647
   \              0000FFFFFF7F
   \                     `?<Initializer for ec_n>`:
   \   00000014   00000000           DC8 0, 0, 0, 0
   \                     `?<Initializer for hdr_icon>`:
   \   00000018   C5050000           DC32 1477
   \                     `?<Initializer for sk>`:
   \   0000001C   FF0F0000           DC16 4095, 0
   \   00000020   ........           DC32 `?<Constant "\\316\\357\\366\\350\\350">`
   \                     `?<Initializer for ed_inp_desc>`:
   \   00000024   01000000....       DC32 1, ed_inp_onkey, ed_inp_ghook, ed_inp_locret, 0, ed_menu_skt
   \              ............
   \              ........0000
   \              0000........
   \   0000003C   010017008200       DC16 1, 23, 130, 154
   \              9A00        
   \   00000044   0B0000006400       DC32 11, 100, 101, 0, 0, 1073741824
   \              000065000000
   \              000000000000
   \              000000000040

   \                                 In segment DATA_ID, align 4, align-sorted
   \                     `?<Initializer for ed_menu_sk>`:
   \   00000000   18000000           DC16 24, 0
   \   00000004   ........           DC32 `?<Constant "\\313\\345\\342">`
   \   00000008   01000000           DC16 1, 0
   \   0000000C   ........           DC32 `?<Constant "\\317\\360\\340\\342">`
   \   00000010   3D000000           DC16 61, 0
   \   00000014   FBC0FF7F           DC32 2147467515

   \                                 In segment DATA_ID, align 4, align-sorted
   \                     `?<Initializer for ed_menu_skt>`:
   \   00000000   ........0000       DC32 ed_menu_sk, 0
   \              0000        

   \                                 In segment DATA_C, align 4, align-sorted
   \                     `?<Constant "\\313\\345\\342">`:
   \   00000000   CBE5E200           DC8 "\313\345\342"

   \                                 In segment DATA_C, align 4, align-sorted
   \                     `?<Constant "\\317\\360\\340\\342">`:
   \   00000000   CFF0E0E200         DC8 "\317\360\340\342"
   \   00000005   000000             DC8 0, 0, 0

   \                                 In segment DATA_C, align 4, align-sorted
   \                     `?<Constant "\\316\\357\\366\\350\\350">`:
   \   00000000   CEEFF6E8E800       DC8 "\316\357\366\350\350"
   \   00000006   0000               DC8 0, 0

   Maximum stack usage in bytes:

     Function           CSTACK
     --------           ------
     CreateChat          1200
     ed_inp_ghook          20
     ed_inp_locret          0
     ed_inp_onkey           8
     ed_options_handler     4
     patch_header           8


   Segment part sizes:

     Function/Label                 Bytes
     --------------                 -----
     patch_header                     48
     percent_t                        72
     ed_inp_locret                     4
     ed_options_handler               44
     ed_inp_onkey                    184
     ed_inp_ghook                    300
     hdr                              92
     ed_menu_sk                       24
     ed_menu_skt                       8
     CreateChat                     1064
     ??DataTable6                      4
     ??DataTable7                      4
     ??DataTable8                      4
     ?<Initializer for hdr>           92
     ?<Initializer for ed_menu_sk>    24
     ?<Initializer for ed_menu_skt>    8
     ?<Constant "\313\345\342">        4
     ?<Constant "\317\360\340\342">    8
     ?<Constant "\316\357\366\350\350">
                                       8
      Others                         140

 
 1 784 bytes in segment CODE
    92 bytes in segment DATA_C
   124 bytes in segment DATA_I
   124 bytes in segment DATA_ID
    12 bytes in segment INITTAB
 
 1 608 bytes of CODE  memory (+ 188 bytes shared)
   216 bytes of CONST memory
   124 bytes of DATA  memory

Errors: none
Warnings: 3
