################################################################################
#                                                                              #
#      IAR Universal Linker V4.60I/386                                         #
#                                                                              #
#           Link time     =  15/Mar/2023  22:35:41                             #
#           Target CPU    =  ARM                                               #
#           List file     =  D:\Users\alfinant\Documents\Siemens\Dev\IAR\VK.EL #
#                            F_C\Releas_NSG\List\¬контакте.map                 #
#           Output file 1 =  D:\Users\alfinant\Documents\Siemens\Dev\IAR\VK.EL #
#                            F_C\Releas_NSG\Exe\¬контакте.elf                  #
#                            Format: elf, variant: -ynpra                      #
#           Command line  =  D:\Users\alfinant\Documents\Siemens\Dev\IAR\VK.EL #
#                            F_C\Releas_NSG\Obj\Menu_About.r79                 #
#                            D:\Users\alfinant\Documents\Siemens\Dev\IAR\VK.EL #
#                            F_C\Releas_NSG\Obj\Menu_Chat.r79                  #
#                            D:\Users\alfinant\Documents\Siemens\Dev\IAR\VK.EL #
#                            F_C\Releas_NSG\Obj\Menu_Dialogs.r79               #
#                            D:\Users\alfinant\Documents\Siemens\Dev\IAR\VK.EL #
#                            F_C\Releas_NSG\Obj\Menu_GroupWall.r79             #
#                            D:\Users\alfinant\Documents\Siemens\Dev\IAR\VK.EL #
#                            F_C\Releas_NSG\Obj\Menu_Groups.r79                #
#                            D:\Users\alfinant\Documents\Siemens\Dev\IAR\VK.EL #
#                            F_C\Releas_NSG\Obj\Menu_Login.r79                 #
#                            D:\Users\alfinant\Documents\Siemens\Dev\IAR\VK.EL #
#                            F_C\Releas_NSG\Obj\Menu_Main.r79                  #
#                            D:\Users\alfinant\Documents\Siemens\Dev\IAR\VK.EL #
#                            F_C\Releas_NSG\Obj\anim_widget.r79                #
#                            D:\Users\alfinant\Documents\Siemens\Dev\IAR\VK.EL #
#                            F_C\Releas_NSG\Obj\buffer.r79                     #
#                            D:\Users\alfinant\Documents\Siemens\Dev\IAR\VK.EL #
#                            F_C\Releas_NSG\Obj\cJSON.r79                      #
#                            D:\Users\alfinant\Documents\Siemens\Dev\IAR\VK.EL #
#                            F_C\Releas_NSG\Obj\cJSON_Utils.r79                #
#                            D:\Users\alfinant\Documents\Siemens\Dev\IAR\VK.EL #
#                            F_C\Releas_NSG\Obj\conf_loader.r79                #
#                            D:\Users\alfinant\Documents\Siemens\Dev\IAR\VK.EL #
#                            F_C\Releas_NSG\Obj\config.r79                     #
#                            D:\Users\alfinant\Documents\Siemens\Dev\IAR\VK.EL #
#                            F_C\Releas_NSG\Obj\conndata.r79                   #
#                            D:\Users\alfinant\Documents\Siemens\Dev\IAR\VK.EL #
#                            F_C\Releas_NSG\Obj\cookie.r79                     #
#                            D:\Users\alfinant\Documents\Siemens\Dev\IAR\VK.EL #
#                            F_C\Releas_NSG\Obj\debug_gui.r79                  #
#                            D:\Users\alfinant\Documents\Siemens\Dev\IAR\VK.EL #
#                            F_C\Releas_NSG\Obj\dyn_images.r79                 #
#                            D:\Users\alfinant\Documents\Siemens\Dev\IAR\VK.EL #
#                            F_C\Releas_NSG\Obj\dyn_theme.r79                  #
#                            D:\Users\alfinant\Documents\Siemens\Dev\IAR\VK.EL #
#                            F_C\Releas_NSG\Obj\func.r79                       #
#                            D:\Users\alfinant\Documents\Siemens\Dev\IAR\VK.EL #
#                            F_C\Releas_NSG\Obj\htpp.r79                       #
#                            D:\Users\alfinant\Documents\Siemens\Dev\IAR\VK.EL #
#                            F_C\Releas_NSG\Obj\main.r79                       #
#                            D:\Users\alfinant\Documents\Siemens\Dev\IAR\VK.EL #
#                            F_C\Releas_NSG\Obj\parser_error.r79               #
#                            D:\Users\alfinant\Documents\Siemens\Dev\IAR\VK.EL #
#                            F_C\Releas_NSG\Obj\parser_user.r79                #
#                            D:\Users\alfinant\Documents\Siemens\Dev\IAR\VK.EL #
#                            F_C\Releas_NSG\Obj\parser_wall.r79                #
#                            D:\Users\alfinant\Documents\Siemens\Dev\IAR\VK.EL #
#                            F_C\Releas_NSG\Obj\process.r79                    #
#                            D:\Users\alfinant\Documents\Siemens\Dev\IAR\VK.EL #
#                            F_C\Releas_NSG\Obj\socket_work.r79                #
#                            D:\Users\alfinant\Documents\Siemens\Dev\IAR\VK.EL #
#                            F_C\Releas_NSG\Obj\ssl_work.r79                   #
#                            D:\Users\alfinant\Documents\Siemens\Dev\IAR\VK.EL #
#                            F_C\Releas_NSG\Obj\string_util.r79                #
#                            D:\Users\alfinant\Documents\Siemens\Dev\IAR\VK.EL #
#                            F_C\Releas_NSG\Obj\url_utils.r79                  #
#                            D:\Users\alfinant\Documents\Siemens\Dev\IAR\VK.EL #
#                            F_C\Releas_NSG\Obj\vk_api.r79                     #
#                            D:\Users\alfinant\Documents\Siemens\Dev\IAR\VK.EL #
#                            F_C\Releas_NSG\Obj\vk_objects.r79                 #
#                            -o                                                #
#                            D:\Users\alfinant\Documents\Siemens\Dev\IAR\VK.EL #
#                            F_C\Releas_NSG\Exe\¬контакте.elf                  #
#                            -Felf -l                                          #
#                            D:\Users\alfinant\Documents\Siemens\Dev\IAR\VK.EL #
#                            F_C\Releas_NSG\List\¬контакте.map                 #
#                            -xm -f                                            #
#                            D:\Users\alfinant\Documents\Siemens\Dev\IAR\VK.EL #
#                            F_C\test.xcl                                      #
#                            (-carm -V(CODE)CODE_AREA,12                       #
#                            -V(DATA)DATA_AREA,12                              #
#                            -Z(CODE_AREA)ELFBEGIN,DATA_ID,START,CODE,DATA_C,I #
#                            NITTAB,DATA_Z,DATA_N,CONFIG_C=0-FFFFFFFF          #
#                            -Z(DATA_AREA)DATA_I=0-FFFFFFFF) -ynpra            #
#                            D:\Users\alfinant\Documents\Siemens\IAR\ARM\LIB\d #
#                            l5tpainl8n.r79                                    #
#                            -s main                                           #
#                                                                              #
#                        Copyright 1987-2007 IAR Systems. All rights reserved. #
################################################################################





                ****************************************
                *                                      *
                *           CROSS REFERENCE            *
                *                                      *
                ****************************************

       Program entry at : CODE_AREA 00006D78  Relocatable, from module : main




                ****************************************
                *                                      *
                *            RUNTIME MODEL             *
                *                                      *
                ****************************************

  StackAlign4                = USED
  StackAlign8                = USED
  __cpu_mode                 = __pcs__interwork
  __data_model               = absolute
  __dlib_file_descriptor     = 0
  __dlib_full_locale_support = 0
  __endian                   = little
  __rt_version               = 6
  __thumb_aware              = enabled



                ****************************************
                *                                      *
                *              MODULE MAP              *
                *                                      *
                ****************************************


  DEFINED ABSOLUTE ENTRIES
    *************************************************************************

  DEFINED ABSOLUTE ENTRIES
    *************************************************************************

  FILE NAME : D:\Users\alfinant\Documents\Siemens\Dev\IAR\VK.ELF_C\Releas_NSG\Obj\Menu_About.r79
  PROGRAM MODULE, NAME : Menu_About

  SEGMENTS IN THE MODULE
  ======================
DATA_C
  Relative segment, address: CODE_AREA 0000C420 - 0000C420 (0x1 bytes), align: 0
  Segment part 2.             Intra module refs:   Segment part 10
    -------------------------------------------------------------------------
DATA_C
  Relative segment, address: CODE_AREA 0000AFBC - 0000AFC3 (0x8 bytes), align: 2
  Segment part 3.             Intra module refs:   Segment part 10
    -------------------------------------------------------------------------
DATA_C
  Relative segment, address: CODE_AREA 0000AFC4 - 0000B01B (0x58 bytes), align: 2
  Segment part 4.             Intra module refs:   OpenAboutMenu
    -------------------------------------------------------------------------
DATA_C
  Relative segment, address: CODE_AREA 0000B01C - 0000B02B (0x10 bytes), align: 2
  Segment part 5.             Intra module refs:   gHook
    -------------------------------------------------------------------------
DATA_C
  Relative segment, address: CODE_AREA 0000B02C - 0000B037 (0xc bytes), align: 2
  Segment part 8.             Intra module refs:   Segment part 7
    -------------------------------------------------------------------------
CODE
  Relative segment, address: CODE_AREA 000007A4 - 000007A7 (0x4 bytes), align: 2
  Segment part 14.            Intra module refs:   Segment part 7
           LOCAL                   ADDRESS         
           =====                   =======         
           proc3                   000007A4 
    -------------------------------------------------------------------------
CODE
  Relative segment, address: CODE_AREA 000007A8 - 000007EB (0x44 bytes), align: 2
  Segment part 16.            Intra module refs:   Segment part 7
           LOCAL                   ADDRESS         
           =====                   =======         
           onKey                   000007A8 
    -------------------------------------------------------------------------
CODE
  Relative segment, address: CODE_AREA 000007EC - 000008D3 (0xe8 bytes), align: 2
  Segment part 18.            Intra module refs:   Segment part 7
           LOCAL                   ADDRESS         
           =====                   =======         
           gHook                   000007EC 
               stack 1 = 00000000 ( 00000010 )
    -------------------------------------------------------------------------
DATA_I
  Relative segment, address: DATA_AREA 00000000 - 000000B7 (0xb8 bytes), align: 2
  Segment part 6.             Intra module refs:   Segment part 23
                                                   gHook
    -------------------------------------------------------------------------
DATA_I
  Relative segment, address: DATA_AREA 000000B8 - 000000CF (0x18 bytes), align: 2
  Segment part 9.             Intra module refs:   Segment part 12
    -------------------------------------------------------------------------
DATA_I
  Relative segment, address: DATA_AREA 000000D0 - 000000D7 (0x8 bytes), align: 2
  Segment part 11.            Intra module refs:   Segment part 7
    -------------------------------------------------------------------------
CODE
  Relative segment, address: CODE_AREA 000008D4 - 00000923 (0x50 bytes), align: 2
  Segment part 20.            Intra module refs:   OpenAboutMenu
           LOCAL                   ADDRESS         
           =====                   =======         
           MyOnRedraw              000008D4 
               stack 1 = 00000000 ( 0000000C )
    -------------------------------------------------------------------------
CODE
  Relative segment, address: CODE_AREA 00000924 - 00000ACF (0x1ac bytes), align: 2
  Segment part 22.
           ENTRY                   ADDRESS         REF BY
           =====                   =======         ======
           OpenAboutMenu           00000924        items_menu_onkey (Menu_Main)
               stack 1 = 00000000 ( 00000098 )
    -------------------------------------------------------------------------
CODE
  Relative segment, address: CODE_AREA 00000AD0 - 00000AD3 (0x4 bytes), align: 2
  Segment part 23.            Intra module refs:   MyOnRedraw
                                                   OpenAboutMenu
    -------------------------------------------------------------------------
DATA_ID
  Relative segment, address: CODE_AREA 00000000 - 000000B7 (0xb8 bytes), align: 2
  Segment part 7.             Intra module refs:   Segment part 6
    -------------------------------------------------------------------------
DATA_ID
  Relative segment, address: CODE_AREA 000000B8 - 000000CF (0x18 bytes), align: 2
  Segment part 10.            Intra module refs:   Segment part 9
    -------------------------------------------------------------------------
DATA_ID
  Relative segment, address: CODE_AREA 000000D0 - 000000D7 (0x8 bytes), align: 2
  Segment part 12.            Intra module refs:   Segment part 11
    -------------------------------------------------------------------------
INITTAB
  Relative segment, address: CODE_AREA 0000C430 - 0000C43B (0xc bytes), align: 2
  Segment part 28. ROOT.
           ENTRY                   ADDRESS         REF BY
           =====                   =======         ======
           ?init?tab?DATA_I        0000C430 

    *************************************************************************

  FILE NAME : D:\Users\alfinant\Documents\Siemens\Dev\IAR\VK.ELF_C\Releas_NSG\Obj\Menu_Chat.r79
  PROGRAM MODULE, NAME : Menu_Chat

  SEGMENTS IN THE MODULE
  ======================
DATA_C
  Relative segment, address: CODE_AREA 0000B038 - 0000B03B (0x4 bytes), align: 2
  Segment part 2.             Intra module refs:   Segment part 9
    -------------------------------------------------------------------------
DATA_C
  Relative segment, address: CODE_AREA 0000B03C - 0000B043 (0x8 bytes), align: 2
  Segment part 3.             Intra module refs:   Segment part 9
    -------------------------------------------------------------------------
DATA_C
  Relative segment, address: CODE_AREA 0000B044 - 0000B08B (0x48 bytes), align: 2
  Segment part 4.             Intra module refs:   Segment part 24
                                                   ed_inp_ghook
    -------------------------------------------------------------------------
DATA_C
  Relative segment, address: CODE_AREA 0000B08C - 0000B093 (0x8 bytes), align: 2
  Segment part 5.             Intra module refs:   Segment part 7
    -------------------------------------------------------------------------
CODE
  Relative segment, address: CODE_AREA 00000AD4 - 00000AD7 (0x4 bytes), align: 2
  Segment part 13.            Intra module refs:   Segment part 7
           LOCAL                   ADDRESS         
           =====                   =======         
           ed_inp_locret           00000AD4 
    -------------------------------------------------------------------------
CODE
  Relative segment, address: CODE_AREA 00000AD8 - 00000B03 (0x2c bytes), align: 2
  Segment part 15.            Intra module refs:   ed_inp_onkey
           LOCAL                   ADDRESS         
           =====                   =======         
           ed_options_handler      00000AD8 
               stack 1 = 00000000 ( 00000004 )
    -------------------------------------------------------------------------
CODE
  Relative segment, address: CODE_AREA 00000B04 - 00000BBB (0xb8 bytes), align: 2
  Segment part 17.            Intra module refs:   Segment part 7
           LOCAL                   ADDRESS         
           =====                   =======         
           ed_inp_onkey            00000B04 
               stack 1 = 00000000 ( 00000008 )
    -------------------------------------------------------------------------
CODE
  Relative segment, address: CODE_AREA 00000BBC - 00000CF3 (0x138 bytes), align: 2
  Segment part 19.            Intra module refs:   Segment part 7
           LOCAL                   ADDRESS         
           =====                   =======         
           ed_inp_ghook            00000BBC 
               stack 1 = 00000000 ( 00000014 )
    -------------------------------------------------------------------------
DATA_I
  Relative segment, address: DATA_AREA 000000D8 - 00000137 (0x60 bytes), align: 2
  Segment part 6.             Intra module refs:   Segment part 23
                                                   ed_inp_onkey
    -------------------------------------------------------------------------
DATA_I
  Relative segment, address: DATA_AREA 00000138 - 0000014F (0x18 bytes), align: 2
  Segment part 8.             Intra module refs:   Segment part 11
    -------------------------------------------------------------------------
DATA_I
  Relative segment, address: DATA_AREA 00000150 - 00000157 (0x8 bytes), align: 2
  Segment part 10.            Intra module refs:   Segment part 7
    -------------------------------------------------------------------------
CODE
  Relative segment, address: CODE_AREA 00000CF4 - 0000112B (0x438 bytes), align: 2
  Segment part 21.
           ENTRY                   ADDRESS         REF BY
           =====                   =======         ======
           CreateChat              00000CF4        items_menu_onkey (Menu_Dialogs)
               stack 1 = 00000000 ( 000004B0 )
    -------------------------------------------------------------------------
CODE
  Relative segment, address: CODE_AREA 0000112C - 0000112F (0x4 bytes), align: 2
  Segment part 22.            Intra module refs:   CreateChat
                                                   ed_inp_ghook
    -------------------------------------------------------------------------
CODE
  Relative segment, address: CODE_AREA 00001130 - 00001133 (0x4 bytes), align: 2
  Segment part 23.            Intra module refs:   CreateChat
                                                   ed_inp_ghook
    -------------------------------------------------------------------------
CODE
  Relative segment, address: CODE_AREA 00001134 - 00001137 (0x4 bytes), align: 2
  Segment part 24.            Intra module refs:   CreateChat
                                                   ed_options_handler
    -------------------------------------------------------------------------
DATA_ID
  Relative segment, address: CODE_AREA 000000D8 - 00000137 (0x60 bytes), align: 2
  Segment part 7.             Intra module refs:   Segment part 6
    -------------------------------------------------------------------------
DATA_ID
  Relative segment, address: CODE_AREA 00000138 - 0000014F (0x18 bytes), align: 2
  Segment part 9.             Intra module refs:   Segment part 8
    -------------------------------------------------------------------------
DATA_ID
  Relative segment, address: CODE_AREA 00000150 - 00000157 (0x8 bytes), align: 2
  Segment part 11.            Intra module refs:   Segment part 10

    *************************************************************************

  FILE NAME : D:\Users\alfinant\Documents\Siemens\Dev\IAR\VK.ELF_C\Releas_NSG\Obj\Menu_Dialogs.r79
  PROGRAM MODULE, NAME : Menu_Dialogs

  SEGMENTS IN THE MODULE
  ======================
DATA_C
  Relative segment, address: CODE_AREA 0000B094 - 0000B0A3 (0x10 bytes), align: 2
  Segment part 2.             Intra module refs:   items_menu_onkey
    -------------------------------------------------------------------------
DATA_C
  Relative segment, address: CODE_AREA 0000B0A4 - 0000B197 (0xf4 bytes), align: 2
  Segment part 3.             Intra module refs:   Segment part 27
    -------------------------------------------------------------------------
DATA_C
  Relative segment, address: CODE_AREA 0000B198 - 0000B1A3 (0xc bytes), align: 2
  Segment part 4.             Intra module refs:   Segment part 10
    -------------------------------------------------------------------------
DATA_C
  Relative segment, address: CODE_AREA 0000B1A4 - 0000B1AB (0x8 bytes), align: 2
  Segment part 5.             Intra module refs:   Segment part 10
    -------------------------------------------------------------------------
DATA_I
  Relative segment, address: DATA_AREA 00000158 - 00000183 (0x2c bytes), align: 2
  Segment part 6.             Intra module refs:   RefreshDialogsMenu
                                                   Segment part 20
                                                   Segment part 33
    -------------------------------------------------------------------------
CODE
  Relative segment, address: CODE_AREA 00001138 - 00001143 (0xc bytes), align: 2
  Segment part 15.
           ENTRY                   ADDRESS         REF BY
           =====                   =======         ======
           set_DialogsCount        00001138        MainProcess (main)
    -------------------------------------------------------------------------
CODE
  Relative segment, address: CODE_AREA 00001144 - 0000114F (0xc bytes), align: 2
  Segment part 17.
           ENTRY                   ADDRESS         REF BY
           =====                   =======         ======
           get_DialogsCount        00001144        MainProcess (main)
    -------------------------------------------------------------------------
DATA_C
  Relative segment, address: CODE_AREA 0000B1AC - 0000B1B7 (0xc bytes), align: 2
  Segment part 8.             Intra module refs:   Segment part 13
    -------------------------------------------------------------------------
DATA_I
  Relative segment, address: DATA_AREA 00000184 - 0000019B (0x18 bytes), align: 2
  Segment part 9.             Intra module refs:   Segment part 12
    -------------------------------------------------------------------------
DATA_I
  Relative segment, address: DATA_AREA 0000019C - 000001A3 (0x8 bytes), align: 2
  Segment part 11.            Intra module refs:   Segment part 13
    -------------------------------------------------------------------------
CODE
  Relative segment, address: CODE_AREA 00001150 - 00001213 (0xc4 bytes), align: 2
  Segment part 19.            Intra module refs:   Segment part 13
           LOCAL                   ADDRESS         
           =====                   =======         
           items_menu_onkey        00001150 
               stack 1 = 00000000 ( 00000004 )
    -------------------------------------------------------------------------
CODE
  Relative segment, address: CODE_AREA 00001214 - 00001217 (0x4 bytes), align: 2
  Segment part 20.            Intra module refs:   get_DialogsCount
                                                   items_menu_onkey
                                                   set_DialogsCount
    -------------------------------------------------------------------------
CODE
  Relative segment, address: CODE_AREA 00001218 - 00001437 (0x220 bytes), align: 2
  Segment part 22.            Intra module refs:   Segment part 13
           LOCAL                   ADDRESS         
           =====                   =======         
           items_menu_ghook        00001218 
               stack 1 = 00000000 ( 00000028 )
    -------------------------------------------------------------------------
CODE
  Relative segment, address: CODE_AREA 00001438 - 0000143B (0x4 bytes), align: 2
  Segment part 23.            Intra module refs:   items_menu_ghook
                                                   items_menu_onkey
    -------------------------------------------------------------------------
CODE
  Relative segment, address: CODE_AREA 0000143C - 0000143F (0x4 bytes), align: 2
  Segment part 24.            Intra module refs:   items_menu_ghook
                                                   items_menu_onkey
    -------------------------------------------------------------------------
CODE
  Relative segment, address: CODE_AREA 00001440 - 000016FF (0x2c0 bytes), align: 2
  Segment part 26.            Intra module refs:   Segment part 13
           LOCAL                   ADDRESS         
           =====                   =======         
           items_menu_iconhndl     00001440 
               stack 1 = 00000000 ( 00000030 )
    -------------------------------------------------------------------------
CODE
  Relative segment, address: CODE_AREA 00001700 - 00001703 (0x4 bytes), align: 2
  Segment part 27.            Intra module refs:   items_menu_ghook
                                                   items_menu_iconhndl
    -------------------------------------------------------------------------
DATA_C
  Relative segment, address: CODE_AREA 0000B1B8 - 0000B1E7 (0x30 bytes), align: 2
  Segment part 13.            Intra module refs:   CreateDialogsMenu
    -------------------------------------------------------------------------
CODE
  Relative segment, address: CODE_AREA 00001704 - 0000176F (0x6c bytes), align: 2
  Segment part 29.
           ENTRY                   ADDRESS         REF BY
           =====                   =======         ======
           RefreshDialogsMenu      00001704        HandleObsFrameUpdate (main)
                                                   LoadSavedDialogs (main)
                                                   MainProcess (main)
               stack 1 = 00000000 ( 00000010 )
    -------------------------------------------------------------------------
CODE
  Relative segment, address: CODE_AREA 00001770 - 00001803 (0x94 bytes), align: 2
  Segment part 31.
           ENTRY                   ADDRESS         REF BY
           =====                   =======         ======
           CreateDialogsMenu       00001770        items_menu_onkey (Menu_Main)
               stack 1 = 00000000 ( 00000010 )
    -------------------------------------------------------------------------
CODE
  Relative segment, address: CODE_AREA 00001804 - 00001807 (0x4 bytes), align: 2
  Segment part 32.            Intra module refs:   CreateDialogsMenu
                                                   RefreshDialogsMenu
                                                   items_menu_ghook
                                                   items_menu_iconhndl
                                                   items_menu_onkey
    -------------------------------------------------------------------------
CODE
  Relative segment, address: CODE_AREA 00001808 - 0000180B (0x4 bytes), align: 2
  Segment part 33.            Intra module refs:   CreateDialogsMenu
                                                   items_menu_ghook
    -------------------------------------------------------------------------
DATA_ID
  Relative segment, address: CODE_AREA 00000158 - 00000183 (0x2c bytes), align: 2
  Segment part 7.             Intra module refs:   Segment part 6
    -------------------------------------------------------------------------
DATA_ID
  Relative segment, address: CODE_AREA 00000184 - 0000019B (0x18 bytes), align: 2
  Segment part 10.            Intra module refs:   Segment part 9
    -------------------------------------------------------------------------
DATA_ID
  Relative segment, address: CODE_AREA 0000019C - 000001A3 (0x8 bytes), align: 2
  Segment part 12.            Intra module refs:   Segment part 11

    *************************************************************************

  FILE NAME : D:\Users\alfinant\Documents\Siemens\Dev\IAR\VK.ELF_C\Releas_NSG\Obj\Menu_GroupWall.r79
  PROGRAM MODULE, NAME : Menu_GroupWall

  SEGMENTS IN THE MODULE
  ======================
DATA_C
  Relative segment, address: CODE_AREA 0000B1E8 - 0000B23B (0x54 bytes), align: 2
  Segment part 2.             Intra module refs:   Segment part 35
    -------------------------------------------------------------------------
DATA_C
  Relative segment, address: CODE_AREA 0000B23C - 0000B243 (0x8 bytes), align: 2
  Segment part 3.             Intra module refs:   Segment part 19
    -------------------------------------------------------------------------
DATA_C
  Relative segment, address: CODE_AREA 0000B244 - 0000B24B (0x8 bytes), align: 2
  Segment part 4.             Intra module refs:   Segment part 19
    -------------------------------------------------------------------------
DATA_C
  Relative segment, address: CODE_AREA 0000B24C - 0000B24F (0x4 bytes), align: 2
  Segment part 5.             Intra module refs:   Segment part 19
    -------------------------------------------------------------------------
DATA_C
  Relative segment, address: CODE_AREA 0000B250 - 0000B253 (0x4 bytes), align: 2
  Segment part 6.             Intra module refs:   Segment part 19
    -------------------------------------------------------------------------
DATA_C
  Relative segment, address: CODE_AREA 0000B254 - 0000B257 (0x4 bytes), align: 2
  Segment part 7.             Intra module refs:   Segment part 19
    -------------------------------------------------------------------------
DATA_C
  Relative segment, address: CODE_AREA 0000B258 - 0000B25B (0x4 bytes), align: 2
  Segment part 8.             Intra module refs:   Segment part 19
    -------------------------------------------------------------------------
DATA_C
  Relative segment, address: CODE_AREA 0000B25C - 0000B25F (0x4 bytes), align: 2
  Segment part 9.             Intra module refs:   Segment part 19
    -------------------------------------------------------------------------
DATA_C
  Relative segment, address: CODE_AREA 0000B260 - 0000B267 (0x8 bytes), align: 2
  Segment part 10.            Intra module refs:   Segment part 19
    -------------------------------------------------------------------------
DATA_C
  Relative segment, address: CODE_AREA 0000B268 - 0000B26F (0x8 bytes), align: 2
  Segment part 11.            Intra module refs:   Segment part 19
    -------------------------------------------------------------------------
DATA_C
  Relative segment, address: CODE_AREA 0000B270 - 0000B273 (0x4 bytes), align: 2
  Segment part 12.            Intra module refs:   Segment part 19
    -------------------------------------------------------------------------
DATA_C
  Relative segment, address: CODE_AREA 0000B274 - 0000B277 (0x4 bytes), align: 2
  Segment part 13.            Intra module refs:   Segment part 19
    -------------------------------------------------------------------------
DATA_C
  Relative segment, address: CODE_AREA 0000B278 - 0000B27F (0x8 bytes), align: 2
  Segment part 14.            Intra module refs:   Segment part 19
    -------------------------------------------------------------------------
DATA_C
  Relative segment, address: CODE_AREA 0000B280 - 0000B283 (0x4 bytes), align: 2
  Segment part 15.            Intra module refs:   Segment part 19
    -------------------------------------------------------------------------
DATA_C
  Relative segment, address: CODE_AREA 0000B284 - 0000B287 (0x4 bytes), align: 2
  Segment part 16.            Intra module refs:   Segment part 19
    -------------------------------------------------------------------------
DATA_C
  Relative segment, address: CODE_AREA 0000B288 - 0000B2A3 (0x1c bytes), align: 2
  Segment part 17.            Intra module refs:   MyOnRedraw
    -------------------------------------------------------------------------
DATA_C
  Relative segment, address: CODE_AREA 0000B2A4 - 0000B2AF (0xc bytes), align: 2
  Segment part 20.            Intra module refs:   Segment part 19
    -------------------------------------------------------------------------
CODE
  Relative segment, address: CODE_AREA 0000180C - 0000180F (0x4 bytes), align: 2
  Segment part 24.            Intra module refs:   Segment part 19
           LOCAL                   ADDRESS         
           =====                   =======         
           proc3                   0000180C 
    -------------------------------------------------------------------------
CODE
  Relative segment, address: CODE_AREA 00001810 - 00001A33 (0x224 bytes), align: 2
  Segment part 26.            Intra module refs:   Segment part 19
           LOCAL                   ADDRESS         
           =====                   =======         
           onKey                   00001810 
               stack 1 = 00000000 ( 00000010 )
    -------------------------------------------------------------------------
CODE
  Relative segment, address: CODE_AREA 00001A34 - 00001B2B (0xf8 bytes), align: 2
  Segment part 28.            Intra module refs:   Segment part 19
           LOCAL                   ADDRESS         
           =====                   =======         
           gHook                   00001A34 
               stack 1 = 00000000 ( 00000014 )
    -------------------------------------------------------------------------
CODE
  Relative segment, address: CODE_AREA 00001B2C - 00001B2F (0x4 bytes), align: 2
  Segment part 29.            Intra module refs:   gHook
                                                   onKey
    -------------------------------------------------------------------------
CODE
  Relative segment, address: CODE_AREA 00001B30 - 00001B33 (0x4 bytes), align: 2
  Segment part 30.            Intra module refs:   gHook
                                                   onKey
    -------------------------------------------------------------------------
CODE
  Relative segment, address: CODE_AREA 00001B34 - 00001BD3 (0xa0 bytes), align: 2
  Segment part 32.            Intra module refs:   CreateWall
           ENTRY                   ADDRESS         REF BY
           =====                   =======         ======
           CalcTextH               00001B34 
               stack 1 = 00000000 ( 0000005C )
    -------------------------------------------------------------------------
CODE
  Relative segment, address: CODE_AREA 00001BD4 - 00001F3B (0x368 bytes), align: 2
  Segment part 34.            Intra module refs:   CreateWall
           LOCAL                   ADDRESS         
           =====                   =======         
           crt_text                00001BD4 
               stack 1 = 00000000 ( 00000058 )
    -------------------------------------------------------------------------
CODE
  Relative segment, address: CODE_AREA 00001F3C - 00001F3F (0x4 bytes), align: 2
  Segment part 35.            Intra module refs:   crt_text
                                                   gHook
    -------------------------------------------------------------------------
DATA_I
  Relative segment, address: DATA_AREA 000001A4 - 000002CB (0x128 bytes), align: 2
  Segment part 18.            Intra module refs:   Segment part 22
                                                   Segment part 38
                                                   Segment part 42
                                                   Wall_Refresh
           ENTRY                   ADDRESS         REF BY
           =====                   =======         ======
           post                    000001F0        MainProcess (main)
    -------------------------------------------------------------------------
DATA_I
  Relative segment, address: DATA_AREA 000002CC - 000002D3 (0x8 bytes), align: 2
  Segment part 21.            Intra module refs:   Segment part 19
    -------------------------------------------------------------------------
CODE
  Relative segment, address: CODE_AREA 00001F40 - 000020EB (0x1ac bytes), align: 2
  Segment part 37.            Intra module refs:   CreateWall
           LOCAL                   ADDRESS         
           =====                   =======         
           MyOnRedraw              00001F40 
               stack 1 = 00000000 ( 0000008C )
    -------------------------------------------------------------------------
CODE
  Relative segment, address: CODE_AREA 000020EC - 000020EF (0x4 bytes), align: 2
  Segment part 38.            Intra module refs:   MyOnRedraw
                                                   crt_text
                                                   gHook
    -------------------------------------------------------------------------
CODE
  Relative segment, address: CODE_AREA 000020F0 - 00002313 (0x224 bytes), align: 2
  Segment part 40.            Intra module refs:   Wall_Refresh
           ENTRY                   ADDRESS         REF BY
           =====                   =======         ======
           CreateWall              000020F0        items_menu_onkey (Menu_Groups)
               stack 1 = 00000000 ( 00000020 )
    -------------------------------------------------------------------------
CODE
  Relative segment, address: CODE_AREA 00002314 - 00002317 (0x4 bytes), align: 2
  Segment part 41.            Intra module refs:   CreateWall
                                                   onKey
    -------------------------------------------------------------------------
CODE
  Relative segment, address: CODE_AREA 00002318 - 0000231B (0x4 bytes), align: 2
  Segment part 42.            Intra module refs:   CreateWall
                                                   onKey
    -------------------------------------------------------------------------
CODE
  Relative segment, address: CODE_AREA 0000231C - 0000233B (0x20 bytes), align: 2
  Segment part 44.            Intra module refs:   onKey
           ENTRY                   ADDRESS         REF BY
           =====                   =======         ======
           Wall_Refresh            0000231C        MainProcess (main)
               stack 1 = 00000000 ( 00000004 )
    -------------------------------------------------------------------------
DATA_ID
  Relative segment, address: CODE_AREA 000001A4 - 000002CB (0x128 bytes), align: 2
  Segment part 19.            Intra module refs:   post
    -------------------------------------------------------------------------
DATA_ID
  Relative segment, address: CODE_AREA 000002CC - 000002D3 (0x8 bytes), align: 2
  Segment part 22.            Intra module refs:   Segment part 21

    *************************************************************************

  FILE NAME : D:\Users\alfinant\Documents\Siemens\Dev\IAR\VK.ELF_C\Releas_NSG\Obj\Menu_Groups.r79
  PROGRAM MODULE, NAME : Menu_Groups

  SEGMENTS IN THE MODULE
  ======================
DATA_C
  Relative segment, address: CODE_AREA 0000B2B0 - 0000B2BB (0xc bytes), align: 2
  Segment part 2.             Intra module refs:   Segment part 10
    -------------------------------------------------------------------------
DATA_C
  Relative segment, address: CODE_AREA 0000B2BC - 0000B2C3 (0x8 bytes), align: 2
  Segment part 3.             Intra module refs:   Segment part 10
    -------------------------------------------------------------------------
DATA_C
  Relative segment, address: CODE_AREA 0000B2C4 - 0000B2D7 (0x14 bytes), align: 2
  Segment part 4.             Intra module refs:   items_menu_ghook
    -------------------------------------------------------------------------
DATA_C
  Relative segment, address: CODE_AREA 0000C421 - 0000C423 (0x3 bytes), align: 0
  Segment part 7.             Intra module refs:   items_menu_iconhndl
    -------------------------------------------------------------------------
DATA_I
  Relative segment, address: DATA_AREA 000002D4 - 00000303 (0x30 bytes), align: 2
  Segment part 5.             Intra module refs:   RefreshGroupsMenu
                                                   Segment part 18
                                                   Segment part 29
    -------------------------------------------------------------------------
DATA_C
  Relative segment, address: CODE_AREA 0000B2D8 - 0000B2E3 (0xc bytes), align: 2
  Segment part 8.             Intra module refs:   Segment part 13
    -------------------------------------------------------------------------
DATA_I
  Relative segment, address: DATA_AREA 00000304 - 0000031B (0x18 bytes), align: 2
  Segment part 9.             Intra module refs:   Segment part 12
    -------------------------------------------------------------------------
DATA_I
  Relative segment, address: DATA_AREA 0000031C - 00000323 (0x8 bytes), align: 2
  Segment part 11.            Intra module refs:   Segment part 13
    -------------------------------------------------------------------------
CODE
  Relative segment, address: CODE_AREA 0000233C - 00002347 (0xc bytes), align: 2
  Segment part 15.
           ENTRY                   ADDRESS         REF BY
           =====                   =======         ======
           set_GroupsCount         0000233C        MainProcess (main)
    -------------------------------------------------------------------------
CODE
  Relative segment, address: CODE_AREA 00002348 - 00002353 (0xc bytes), align: 2
  Segment part 17.
           ENTRY                   ADDRESS         REF BY
           =====                   =======         ======
           get_GroupsCount         00002348        MainProcess (main)
    -------------------------------------------------------------------------
CODE
  Relative segment, address: CODE_AREA 00002354 - 00002357 (0x4 bytes), align: 2
  Segment part 18.            Intra module refs:   get_GroupsCount
                                                   set_GroupsCount
    -------------------------------------------------------------------------
CODE
  Relative segment, address: CODE_AREA 00002358 - 00002423 (0xcc bytes), align: 2
  Segment part 20.            Intra module refs:   Segment part 13
           LOCAL                   ADDRESS         
           =====                   =======         
           items_menu_onkey        00002358 
               stack 1 = 00000000 ( 00000004 )
    -------------------------------------------------------------------------
CODE
  Relative segment, address: CODE_AREA 00002424 - 000025C3 (0x1a0 bytes), align: 2
  Segment part 22.            Intra module refs:   Segment part 13
           LOCAL                   ADDRESS         
           =====                   =======         
           items_menu_ghook        00002424 
               stack 1 = 00000000 ( 00000020 )
    -------------------------------------------------------------------------
CODE
  Relative segment, address: CODE_AREA 000025C4 - 0000271F (0x15c bytes), align: 2
  Segment part 24.            Intra module refs:   Segment part 13
           LOCAL                   ADDRESS         
           =====                   =======         
           items_menu_iconhndl     000025C4 
               stack 1 = 00000000 ( 00000020 )
    -------------------------------------------------------------------------
DATA_C
  Relative segment, address: CODE_AREA 0000B2E4 - 0000B313 (0x30 bytes), align: 2
  Segment part 13.            Intra module refs:   CreateGroupsMenu
    -------------------------------------------------------------------------
CODE
  Relative segment, address: CODE_AREA 00002720 - 0000275F (0x40 bytes), align: 2
  Segment part 26.
           ENTRY                   ADDRESS         REF BY
           =====                   =======         ======
           RefreshGroupsMenu       00002720        LoadSavedGroups (main)
                                                   MainProcess (main)
               stack 1 = 00000000 ( 0000000C )
    -------------------------------------------------------------------------
CODE
  Relative segment, address: CODE_AREA 00002760 - 000027E3 (0x84 bytes), align: 2
  Segment part 28.
           ENTRY                   ADDRESS         REF BY
           =====                   =======         ======
           CreateGroupsMenu        00002760        items_menu_onkey (Menu_Main)
               stack 1 = 00000000 ( 00000010 )
    -------------------------------------------------------------------------
CODE
  Relative segment, address: CODE_AREA 000027E4 - 000027E7 (0x4 bytes), align: 2
  Segment part 29.            Intra module refs:   CreateGroupsMenu
                                                   items_menu_ghook
    -------------------------------------------------------------------------
CODE
  Relative segment, address: CODE_AREA 000027E8 - 000027EB (0x4 bytes), align: 2
  Segment part 30.            Intra module refs:   CreateGroupsMenu
                                                   RefreshGroupsMenu
                                                   items_menu_ghook
                                                   items_menu_iconhndl
                                                   items_menu_onkey
    -------------------------------------------------------------------------
DATA_ID
  Relative segment, address: CODE_AREA 000002D4 - 00000303 (0x30 bytes), align: 2
  Segment part 6.             Intra module refs:   Segment part 5
    -------------------------------------------------------------------------
DATA_ID
  Relative segment, address: CODE_AREA 00000304 - 0000031B (0x18 bytes), align: 2
  Segment part 10.            Intra module refs:   Segment part 9
    -------------------------------------------------------------------------
DATA_ID
  Relative segment, address: CODE_AREA 0000031C - 00000323 (0x8 bytes), align: 2
  Segment part 12.            Intra module refs:   Segment part 11

    *************************************************************************

  FILE NAME : D:\Users\alfinant\Documents\Siemens\Dev\IAR\VK.ELF_C\Releas_NSG\Obj\Menu_Login.r79
  PROGRAM MODULE, NAME : Menu_Login

  SEGMENTS IN THE MODULE
  ======================
DATA_C
  Relative segment, address: CODE_AREA 0000B314 - 0000B317 (0x4 bytes), align: 2
  Segment part 2.             Intra module refs:   Segment part 19
    -------------------------------------------------------------------------
DATA_C
  Relative segment, address: CODE_AREA 0000B318 - 0000B31F (0x8 bytes), align: 2
  Segment part 3.             Intra module refs:   Segment part 19
    -------------------------------------------------------------------------
DATA_C
  Relative segment, address: CODE_AREA 0000B320 - 0000B333 (0x14 bytes), align: 2
  Segment part 4.             Intra module refs:   ed_inp_onkey
    -------------------------------------------------------------------------
DATA_C
  Relative segment, address: CODE_AREA 0000C424 - 0000C426 (0x3 bytes), align: 0
  Segment part 5.             Intra module refs:   Segment part 12
    -------------------------------------------------------------------------
DATA_C
  Relative segment, address: CODE_AREA 0000B334 - 0000B33B (0x8 bytes), align: 2
  Segment part 6.             Intra module refs:   Segment part 12
    -------------------------------------------------------------------------
DATA_C
  Relative segment, address: CODE_AREA 0000B33C - 0000B36B (0x30 bytes), align: 2
  Segment part 8.             Intra module refs:   CreateLoginDialog
    -------------------------------------------------------------------------
DATA_C
  Relative segment, address: CODE_AREA 0000B36C - 0000B37B (0x10 bytes), align: 2
  Segment part 13.            Intra module refs:   ed_inp_ghook
    -------------------------------------------------------------------------
DATA_Z
  Relative segment, address: CODE_AREA 0000C448 - 0000C4A7 (0x60 bytes), align: 2
  Segment part 16.            Intra module refs:   ed_inp_onkey
           ENTRY                   ADDRESS         REF BY
           =====                   =======         ======
           captcha_key             0000C448 
           login                   0000C468 
           pass                    0000C488 
    -------------------------------------------------------------------------
CODE
  Relative segment, address: CODE_AREA 000027EC - 000027EF (0x4 bytes), align: 2
  Segment part 23.            Intra module refs:   Segment part 12
           LOCAL                   ADDRESS         
           =====                   =======         
           ed_inp_locret           000027EC 
    -------------------------------------------------------------------------
CODE
  Relative segment, address: CODE_AREA 000027F0 - 0000294B (0x15c bytes), align: 2
  Segment part 25.            Intra module refs:   Segment part 12
           LOCAL                   ADDRESS         
           =====                   =======         
           ed_inp_onkey            000027F0 
               stack 1 = 00000000 ( 00000094 )
    -------------------------------------------------------------------------
CODE
  Relative segment, address: CODE_AREA 0000294C - 00002A47 (0xfc bytes), align: 2
  Segment part 27.            Intra module refs:   Segment part 12
           LOCAL                   ADDRESS         
           =====                   =======         
           ed_inp_ghook            0000294C 
               stack 1 = 00000000 ( 00000010 )
    -------------------------------------------------------------------------
CODE
  Relative segment, address: CODE_AREA 00002A48 - 00002A4B (0x4 bytes), align: 2
  Segment part 28.            Intra module refs:   ed_inp_ghook
                                                   ed_inp_onkey
    -------------------------------------------------------------------------
DATA_I
  Relative segment, address: DATA_AREA 00000324 - 00000383 (0x60 bytes), align: 2
  Segment part 11.            Intra module refs:   CreateLoginDialog
                                                   ed_inp_ghook
    -------------------------------------------------------------------------
DATA_I
  Relative segment, address: DATA_AREA 00000384 - 0000039B (0x18 bytes), align: 2
  Segment part 18.            Intra module refs:   Segment part 21
    -------------------------------------------------------------------------
DATA_I
  Relative segment, address: DATA_AREA 0000039C - 000003A3 (0x8 bytes), align: 2
  Segment part 20.            Intra module refs:   Segment part 12
    -------------------------------------------------------------------------
CODE
  Relative segment, address: CODE_AREA 00002A4C - 00002C1B (0x1d0 bytes), align: 2
  Segment part 30.
           ENTRY                   ADDRESS         REF BY
           =====                   =======         ======
           CreateLoginDialog       00002A4C        Logout (main)
                                                   startApp (main)
               stack 1 = 00000000 ( 0000026C )
    -------------------------------------------------------------------------
DATA_ID
  Relative segment, address: CODE_AREA 00000324 - 00000383 (0x60 bytes), align: 2
  Segment part 12.            Intra module refs:   Segment part 11
    -------------------------------------------------------------------------
DATA_ID
  Relative segment, address: CODE_AREA 00000384 - 0000039B (0x18 bytes), align: 2
  Segment part 19.            Intra module refs:   Segment part 18
    -------------------------------------------------------------------------
DATA_ID
  Relative segment, address: CODE_AREA 0000039C - 000003A3 (0x8 bytes), align: 2
  Segment part 21.            Intra module refs:   Segment part 20
    -------------------------------------------------------------------------
INITTAB
  Relative segment, address: CODE_AREA 0000C43C - 0000C447 (0xc bytes), align: 2
  Segment part 39. ROOT.
           ENTRY                   ADDRESS         REF BY
           =====                   =======         ======
           ?init?tab?DATA_Z        0000C43C 

    *************************************************************************

  FILE NAME : D:\Users\alfinant\Documents\Siemens\Dev\IAR\VK.ELF_C\Releas_NSG\Obj\Menu_Main.r79
  PROGRAM MODULE, NAME : Menu_Main

  SEGMENTS IN THE MODULE
  ======================
DATA_C
  Relative segment, address: CODE_AREA 0000B37C - 0000B383 (0x8 bytes), align: 2
  Segment part 2.             Intra module refs:   Segment part 10
    -------------------------------------------------------------------------
DATA_C
  Relative segment, address: CODE_AREA 0000B384 - 0000B38B (0x8 bytes), align: 2
  Segment part 3.             Intra module refs:   Segment part 10
    -------------------------------------------------------------------------
DATA_C
  Relative segment, address: CODE_AREA 0000B38C - 0000B3CB (0x40 bytes), align: 2
  Segment part 4.             Intra module refs:   Segment part 20
    -------------------------------------------------------------------------
DATA_I
  Relative segment, address: DATA_AREA 000003A4 - 000003B7 (0x14 bytes), align: 2
  Segment part 5.             Intra module refs:   CreateMainMenu
    -------------------------------------------------------------------------
DATA_Z
  Relative segment, address: CODE_AREA 0000C4A8 - 0000C4AB (0x4 bytes), align: 2
  Segment part 7.             Intra module refs:   items_menu_ghook
    -------------------------------------------------------------------------
DATA_C
  Relative segment, address: CODE_AREA 0000B3CC - 0000B3D7 (0xc bytes), align: 2
  Segment part 8.             Intra module refs:   Segment part 13
    -------------------------------------------------------------------------
DATA_I
  Relative segment, address: DATA_AREA 000003B8 - 000003CF (0x18 bytes), align: 2
  Segment part 9.             Intra module refs:   Segment part 12
    -------------------------------------------------------------------------
DATA_I
  Relative segment, address: DATA_AREA 000003D0 - 000003D7 (0x8 bytes), align: 2
  Segment part 11.            Intra module refs:   Segment part 13
    -------------------------------------------------------------------------
CODE
  Relative segment, address: CODE_AREA 00002C1C - 00002CBF (0xa4 bytes), align: 2
  Segment part 15.            Intra module refs:   Segment part 13
           LOCAL                   ADDRESS         
           =====                   =======         
           items_menu_onkey        00002C1C 
               stack 1 = 00000000 ( 00000008 )
    -------------------------------------------------------------------------
CODE
  Relative segment, address: CODE_AREA 00002CC0 - 00002D57 (0x98 bytes), align: 2
  Segment part 17.            Intra module refs:   Segment part 13
           LOCAL                   ADDRESS         
           =====                   =======         
           items_menu_ghook        00002CC0 
               stack 1 = 00000000 ( 00000010 )
    -------------------------------------------------------------------------
CODE
  Relative segment, address: CODE_AREA 00002D58 - 00002DE3 (0x8c bytes), align: 2
  Segment part 19.            Intra module refs:   Segment part 13
           LOCAL                   ADDRESS         
           =====                   =======         
           items_menu_iconhndl     00002D58 
               stack 1 = 00000000 ( 00000014 )
    -------------------------------------------------------------------------
CODE
  Relative segment, address: CODE_AREA 00002DE4 - 00002DE7 (0x4 bytes), align: 2
  Segment part 20.            Intra module refs:   items_menu_ghook
                                                   items_menu_iconhndl
    -------------------------------------------------------------------------
DATA_C
  Relative segment, address: CODE_AREA 0000B3D8 - 0000B403 (0x2c bytes), align: 2
  Segment part 13.            Intra module refs:   CreateMainMenu
    -------------------------------------------------------------------------
CODE
  Relative segment, address: CODE_AREA 00002DE8 - 00002E63 (0x7c bytes), align: 2
  Segment part 22.
           ENTRY                   ADDRESS         REF BY
           =====                   =======         ======
           CreateMainMenu          00002DE8        MainProcess (main)
                                                   startApp (main)
               stack 1 = 00000000 ( 00000010 )
    -------------------------------------------------------------------------
DATA_ID
  Relative segment, address: CODE_AREA 000003A4 - 000003B7 (0x14 bytes), align: 2
  Segment part 6.             Intra module refs:   Segment part 5
    -------------------------------------------------------------------------
DATA_ID
  Relative segment, address: CODE_AREA 000003B8 - 000003CF (0x18 bytes), align: 2
  Segment part 10.            Intra module refs:   Segment part 9
    -------------------------------------------------------------------------
DATA_ID
  Relative segment, address: CODE_AREA 000003D0 - 000003D7 (0x8 bytes), align: 2
  Segment part 12.            Intra module refs:   Segment part 11

    *************************************************************************

  FILE NAME : D:\Users\alfinant\Documents\Siemens\Dev\IAR\VK.ELF_C\Releas_NSG\Obj\anim_widget.r79
  PROGRAM MODULE, NAME : anim_widget

  SEGMENTS IN THE MODULE
  ======================
CODE
  Relative segment, address: CODE_AREA 00002E64 - 00002E83 (0x20 bytes), align: 2
  Segment part 7.
           ENTRY                   ADDRESS         REF BY
           =====                   =======         ======
           AnimWidget_IsBottom     00002E64        items_menu_ghook (Menu_Dialogs)
    -------------------------------------------------------------------------
CODE
  Relative segment, address: CODE_AREA 00002E84 - 00002E93 (0x10 bytes), align: 2
  Segment part 9.             Intra module refs:   Segment part 5
           LOCAL                   ADDRESS         
           =====                   =======         
           HandleObsPrepareCon     00002E84 
               stack 1 = 00000000 ( 00000004 )
    -------------------------------------------------------------------------
CODE
  Relative segment, address: CODE_AREA 00002E94 - 00003037 (0x1a4 bytes), align: 2
  Segment part 11.            Intra module refs:   Segment part 5
           LOCAL                   ADDRESS         
           =====                   =======         
           HandleObsFrameUpdate    00002E94 
               stack 1 = 00000000 ( 00000050 )
    -------------------------------------------------------------------------
CODE
  Relative segment, address: CODE_AREA 00003038 - 0000305F (0x28 bytes), align: 2
  Segment part 13.            Intra module refs:   Segment part 5
           LOCAL                   ADDRESS         
           =====                   =======         
           HandleObsError          00003038 
               stack 1 = 00000000 ( 00000008 )
    -------------------------------------------------------------------------
DATA_I
  Relative segment, address: DATA_AREA 000003D8 - 00000407 (0x30 bytes), align: 2
  Segment part 4.             Intra module refs:   AnimWidget_IsBottom
                                                   Segment part 30
    -------------------------------------------------------------------------
CODE
  Relative segment, address: CODE_AREA 00003060 - 0000308B (0x2c bytes), align: 2
  Segment part 15.
           ENTRY                   ADDRESS         REF BY
           =====                   =======         ======
           AnimWidgetHandler       00003060        maincsm_onmessage (main)
               stack 1 = 00000000 ( 00000004 )
    -------------------------------------------------------------------------
CODE
  Relative segment, address: CODE_AREA 0000308C - 000031A3 (0x118 bytes), align: 2
  Segment part 17.            Intra module refs:   AnimWidget_Wait_bottom
                                                   AnimWidget_Wait_center
                                                   AnimWidget_Wait_headline
           LOCAL                   ADDRESS         
           =====                   =======         
           AnimWidget_Wait_fn      0000308C 
               stack 1 = 00000000 ( 0000001C )
    -------------------------------------------------------------------------
CODE
  Relative segment, address: CODE_AREA 000031A4 - 000031F3 (0x50 bytes), align: 2
  Segment part 19.            Intra module refs:   AnimWidget_Wait
           LOCAL                   ADDRESS         
           =====                   =======         
           AnimWidget_Wait_center
                                   000031A4 
               stack 1 = 00000000 ( 00000118 )
    -------------------------------------------------------------------------
CODE
  Relative segment, address: CODE_AREA 000031F4 - 00003243 (0x50 bytes), align: 2
  Segment part 21.            Intra module refs:   AnimWidget_Wait
           LOCAL                   ADDRESS         
           =====                   =======         
           AnimWidget_Wait_bottom
                                   000031F4 
               stack 1 = 00000000 ( 00000118 )
    -------------------------------------------------------------------------
CODE
  Relative segment, address: CODE_AREA 00003244 - 00003247 (0x4 bytes), align: 2
  Segment part 22.            Intra module refs:   AnimWidget_Wait_bottom
                                                   AnimWidget_Wait_center
    -------------------------------------------------------------------------
CODE
  Relative segment, address: CODE_AREA 00003248 - 00003297 (0x50 bytes), align: 2
  Segment part 24.            Intra module refs:   AnimWidget_Wait
           LOCAL                   ADDRESS         
           =====                   =======         
           AnimWidget_Wait_headline
                                   00003248 
               stack 1 = 00000000 ( 00000118 )
    -------------------------------------------------------------------------
CODE
  Relative segment, address: CODE_AREA 00003298 - 0000329B (0x4 bytes), align: 2
  Segment part 25.            Intra module refs:   AnimWidget_Wait_bottom
                                                   AnimWidget_Wait_center
                                                   AnimWidget_Wait_headline
    -------------------------------------------------------------------------
CODE
  Relative segment, address: CODE_AREA 0000329C - 000032BF (0x24 bytes), align: 2
  Segment part 27.
           ENTRY                   ADDRESS         REF BY
           =====                   =======         ======
           AnimWidget_Wait         0000329C        ed_inp_ghook (Menu_Chat)
                                                   ed_inp_ghook (Menu_Login)
                                                   ed_inp_onkey (Menu_Login)
                                                   gHook (Menu_GroupWall)
                                                   items_menu_ghook (Menu_Dialogs)
                                                   items_menu_ghook (Menu_Groups)
                                                   items_menu_onkey (Menu_Dialogs)
                                                   items_menu_onkey (Menu_Groups)
                                                   onKey (Menu_GroupWall)
               stack 1 = 00000000 ( 00000004 )
    -------------------------------------------------------------------------
CODE
  Relative segment, address: CODE_AREA 000032C0 - 0000330F (0x50 bytes), align: 2
  Segment part 29.            Intra module refs:   AnimWidget_Wait_bottom
                                                   AnimWidget_Wait_center
                                                   AnimWidget_Wait_headline
           ENTRY                   ADDRESS         REF BY
           =====                   =======         ======
           AnimWidget_Close        000032C0        LoadSavedDialogs (main)
                                                   LoadSavedGroups (main)
                                                   MainProcess (main)
                                                   ed_inp_ghook (Menu_Chat)
                                                   ed_inp_ghook (Menu_Login)
                                                   ed_inp_onkey (Menu_Chat)
                                                   gHook (Menu_GroupWall)
                                                   items_menu_ghook (Menu_Dialogs)
                                                   items_menu_ghook (Menu_Groups)
                                                   maincsm_onclose (main)
                                                   maincsm_onmessage (main)
                                                   socket_error_handler (main)
               stack 1 = 00000000 ( 0000000C )
    -------------------------------------------------------------------------
CODE
  Relative segment, address: CODE_AREA 00003310 - 00003313 (0x4 bytes), align: 2
  Segment part 30.            Intra module refs:   AnimWidgetHandler
                                                   AnimWidget_Close
                                                   AnimWidget_Wait_bottom
                                                   AnimWidget_Wait_center
                                                   AnimWidget_Wait_fn
                                                   AnimWidget_Wait_headline
                                                   HandleObsError
                                                   HandleObsFrameUpdate
    -------------------------------------------------------------------------
DATA_ID
  Relative segment, address: CODE_AREA 000003D8 - 00000407 (0x30 bytes), align: 2
  Segment part 5.             Intra module refs:   Segment part 4
    -------------------------------------------------------------------------
DATA_C
  Relative segment, address: CODE_AREA 0000B404 - 0000B417 (0x14 bytes), align: 2
  Segment part 2.             Intra module refs:   Segment part 22
    -------------------------------------------------------------------------
DATA_C
  Relative segment, address: CODE_AREA 0000B418 - 0000B42F (0x18 bytes), align: 2
  Segment part 3.             Intra module refs:   AnimWidget_Wait_headline

    *************************************************************************

  FILE NAME : D:\Users\alfinant\Documents\Siemens\Dev\IAR\VK.ELF_C\Releas_NSG\Obj\buffer.r79
  PROGRAM MODULE, NAME : buffer

  SEGMENTS IN THE MODULE
  ======================
DATA_Z
  Relative segment, address: CODE_AREA 0000C4AC - 0000C4B3 (0x8 bytes), align: 2
  Segment part 2.             Intra module refs:   free_send_buf
           ENTRY                   ADDRESS         REF BY
           =====                   =======         ======
           send_buf                0000C4AC        send_answer (socket_work)
                                                   ssl_send_answer (ssl_work)
           send_buf_len            0000C4B0        send_answer (socket_work)
                                                   ssl_send_answer (ssl_work)
    -------------------------------------------------------------------------
DATA_Z
  Relative segment, address: CODE_AREA 0000C4B4 - 0000C4BB (0x8 bytes), align: 2
  Segment part 3.             Intra module refs:   free_recv_buf
           ENTRY                   ADDRESS         REF BY
           =====                   =======         ======
           recv_buf                0000C4B4        MainProcess (main)
                                                   OnRedraw (debug_gui)
                                                   ParseHeader (htpp)
                                                   Segment part 62 (vk_api)
                                                   ssl_get_answer (ssl_work)
           recv_buf_len            0000C4B8 
    -------------------------------------------------------------------------
CODE
  Relative segment, address: CODE_AREA 00003314 - 0000333F (0x2c bytes), align: 2
  Segment part 5.             Intra module refs:   free_buffers
           ENTRY                   ADDRESS         REF BY
           =====                   =======         ======
           free_recv_buf           00003314        ssl_send_answer (ssl_work)
               stack 1 = 00000000 ( 0000000C )
    -------------------------------------------------------------------------
CODE
  Relative segment, address: CODE_AREA 00003340 - 0000336B (0x2c bytes), align: 2
  Segment part 7.             Intra module refs:   free_buffers
           ENTRY                   ADDRESS         REF BY
           =====                   =======         ======
           free_send_buf           00003340        send_answer (socket_work)
                                                   ssl_send_answer (ssl_work)
               stack 1 = 00000000 ( 0000000C )
    -------------------------------------------------------------------------
CODE
  Relative segment, address: CODE_AREA 0000336C - 0000337B (0x10 bytes), align: 2
  Segment part 9.
           ENTRY                   ADDRESS         REF BY
           =====                   =======         ======
           free_buffers            0000336C        end_socket_work (socket_work)
               stack 1 = 00000000 ( 00000004 )

    *************************************************************************

  FILE NAME : D:\Users\alfinant\Documents\Siemens\Dev\IAR\VK.ELF_C\Releas_NSG\Obj\cJSON.r79
  PROGRAM MODULE, NAME : cJSON

  SEGMENTS IN THE MODULE
  ======================
DATA_C
  Relative segment, address: CODE_AREA 0000B430 - 0000B45B (0x2c bytes), align: 2
  Segment part 3.             Intra module refs:   Segment part 69
    -------------------------------------------------------------------------
CODE
  Relative segment, address: CODE_AREA 0000337C - 00003387 (0xc bytes), align: 2
  Segment part 20.            Intra module refs:   Segment part 11
           LOCAL                   ADDRESS         
           =====                   =======         
           internal_malloc         0000337C 
               stack 1 = 00000000 ( 00000004 )
    -------------------------------------------------------------------------
CODE
  Relative segment, address: CODE_AREA 00003388 - 00003393 (0xc bytes), align: 2
  Segment part 22.            Intra module refs:   Segment part 11
           LOCAL                   ADDRESS         
           =====                   =======         
           internal_free           00003388 
               stack 1 = 00000000 ( 00000004 )
    -------------------------------------------------------------------------
CODE
  Relative segment, address: CODE_AREA 00003394 - 0000339F (0xc bytes), align: 2
  Segment part 24.            Intra module refs:   Segment part 11
           LOCAL                   ADDRESS         
           =====                   =======         
           internal_realloc        00003394 
               stack 1 = 00000000 ( 00000004 )
    -------------------------------------------------------------------------
DATA_I
  Relative segment, address: DATA_AREA 00000408 - 0000041B (0x14 bytes), align: 2
  Segment part 10.            Intra module refs:   Segment part 33
                                                   Segment part 66
    -------------------------------------------------------------------------
CODE
  Relative segment, address: CODE_AREA 000033A0 - 000033CF (0x30 bytes), align: 2
  Segment part 30.            Intra module refs:   cJSON_ParseWithOpts
                                                   parse_array
                                                   parse_object
           LOCAL                   ADDRESS         
           =====                   =======         
           cJSON_New_Item          000033A0 
               stack 1 = 00000000 ( 00000008 )
    -------------------------------------------------------------------------
CODE
  Relative segment, address: CODE_AREA 000033D0 - 00003457 (0x88 bytes), align: 2
  Segment part 32.            Intra module refs:   cJSON_ParseWithOpts
                                                   parse_array
                                                   parse_object
           ENTRY                   ADDRESS         REF BY
           =====                   =======         ======
           cJSON_Delete            000033D0        parse_answer_auth_direct (vk_api)
                                                   parse_answer_groups_get (vk_api)
                                                   parse_answer_messages_getConversations (vk_api)
                                                   parse_answer_messages_getLongPollServer (vk_api)
                                                   parse_answer_wall_get (parser_wall)
               stack 1 = 00000000 ( 00000010 )
    -------------------------------------------------------------------------
CODE
  Relative segment, address: CODE_AREA 00003458 - 0000345B (0x4 bytes), align: 2
  Segment part 33.            Intra module refs:   cJSON_Delete
    -------------------------------------------------------------------------
CODE
  Relative segment, address: CODE_AREA 0000345C - 000035EB (0x190 bytes), align: 2
  Segment part 35.            Intra module refs:   parse_value
           LOCAL                   ADDRESS         
           =====                   =======         
           parse_number            0000345C 
               stack 1 = 00000000 ( 00000058 )
    -------------------------------------------------------------------------
CODE
  Relative segment, address: CODE_AREA 000035EC - 000037E3 (0x1f8 bytes), align: 2
  Segment part 45.            Intra module refs:   parse_string
           LOCAL                   ADDRESS         
           =====                   =======         
           utf16_literal_to_utf8   000035EC 
               stack 1 = 00000000 ( 00000010 )
    -------------------------------------------------------------------------
CODE
  Relative segment, address: CODE_AREA 000037E4 - 00003A07 (0x224 bytes), align: 2
  Segment part 47.            Intra module refs:   parse_object
                                                   parse_value
           LOCAL                   ADDRESS         
           =====                   =======         
           parse_string            000037E4 
               stack 1 = 00000000 ( 00000028 )
    -------------------------------------------------------------------------
CODE
  Relative segment, address: CODE_AREA 00003A08 - 00003A53 (0x4c bytes), align: 2
  Segment part 51.            Intra module refs:   cJSON_ParseWithOpts
                                                   parse_array
                                                   parse_object
           LOCAL                   ADDRESS         
           =====                   =======         
           buffer_skip_whitespace
                                   00003A08 
    -------------------------------------------------------------------------
CODE
  Relative segment, address: CODE_AREA 00003A54 - 00003BD3 (0x180 bytes), align: 2
  Segment part 53.            Intra module refs:   cJSON_Parse
           ENTRY                   ADDRESS         REF BY
           =====                   =======         ======
           cJSON_ParseWithOpts     00003A54        parse_answer_auth_direct (vk_api)
                                                   parse_answer_groups_get (vk_api)
                                                   parse_answer_messages_getConversations (vk_api)
                                                   parse_answer_wall_get (parser_wall)
               stack 1 = 00000000 ( 00000038 )
    -------------------------------------------------------------------------
CODE
  Relative segment, address: CODE_AREA 00003BD4 - 00003BDF (0xc bytes), align: 2
  Segment part 55.
           ENTRY                   ADDRESS         REF BY
           =====                   =======         ======
           cJSON_Parse             00003BD4        parse_answer_messages_getLongPollServer (vk_api)
               stack 1 = 00000000 ( 00000004 )
    -------------------------------------------------------------------------
CODE
  Relative segment, address: CODE_AREA 00003BE0 - 00003BE3 (0x4 bytes), align: 2
  Segment part 66.            Intra module refs:   cJSON_ParseWithOpts
    -------------------------------------------------------------------------
CODE
  Relative segment, address: CODE_AREA 00003BE4 - 00003D67 (0x184 bytes), align: 2
  Segment part 68.            Intra module refs:   cJSON_ParseWithOpts
                                                   parse_array
                                                   parse_object
           LOCAL                   ADDRESS         
           =====                   =======         
           parse_value             00003BE4 
               stack 1 = 00000000 ( 00000014 )
    -------------------------------------------------------------------------
CODE
  Relative segment, address: CODE_AREA 00003D68 - 00003D6B (0x4 bytes), align: 2
  Segment part 69.            Intra module refs:   parse_value
    -------------------------------------------------------------------------
CODE
  Relative segment, address: CODE_AREA 00003D6C - 00003ECB (0x160 bytes), align: 2
  Segment part 74.            Intra module refs:   parse_value
           LOCAL                   ADDRESS         
           =====                   =======         
           parse_array             00003D6C 
               stack 1 = 00000000 ( 00000014 )
    -------------------------------------------------------------------------
CODE
  Relative segment, address: CODE_AREA 00003ECC - 00004093 (0x1c8 bytes), align: 2
  Segment part 78.            Intra module refs:   parse_value
           LOCAL                   ADDRESS         
           =====                   =======         
           parse_object            00003ECC 
               stack 1 = 00000000 ( 00000018 )
    -------------------------------------------------------------------------
CODE
  Relative segment, address: CODE_AREA 00004094 - 000040C3 (0x30 bytes), align: 2
  Segment part 82.
           ENTRY                   ADDRESS         REF BY
           =====                   =======         ======
           cJSON_GetArraySize      00004094        __parse_obj_Message (vk_api)
                                                   parse_answer_groups_get (vk_api)
                                                   parse_answer_messages_getConversations (vk_api)
                                                   parse_obj_profiles (parser_user)
    -------------------------------------------------------------------------
CODE
  Relative segment, address: CODE_AREA 000040C4 - 0000418B (0xc8 bytes), align: 2
  Segment part 86.            Intra module refs:   cJSON_GetObjectItem
           LOCAL                   ADDRESS         
           =====                   =======         
           get_object_item         000040C4 
               stack 1 = 00000000 ( 00000018 )
    -------------------------------------------------------------------------
CODE
  Relative segment, address: CODE_AREA 0000418C - 00004193 (0x8 bytes), align: 2
  Segment part 88.
           ENTRY                   ADDRESS         REF BY
           =====                   =======         ======
           cJSON_GetObjectItem     0000418C        __parse_obj_Error (parser_error)
                                                   __parse_obj_Group (vk_api)
                                                   __parse_obj_Message (vk_api)
                                                   __parse_obj_User (vk_api)
                                                   parse_answer_auth_direct (vk_api)
                                                   parse_answer_groups_get (vk_api)
                                                   parse_answer_messages_getConversations (vk_api)
                                                   parse_answer_messages_getLongPollServer (vk_api)
                                                   parse_answer_wall_get (parser_wall)
                                                   parse_obj_User (parser_user)
               stack 1 = 00000000 ( 00000004 )
    -------------------------------------------------------------------------
DATA_ID
  Relative segment, address: CODE_AREA 00000408 - 0000041B (0x14 bytes), align: 2
  Segment part 11.            Intra module refs:   Segment part 10

    *************************************************************************

  FILE NAME : D:\Users\alfinant\Documents\Siemens\Dev\IAR\VK.ELF_C\Releas_NSG\Obj\cJSON_Utils.r79
    *************************************************************************

  FILE NAME : D:\Users\alfinant\Documents\Siemens\Dev\IAR\VK.ELF_C\Releas_NSG\Obj\conf_loader.r79
  PROGRAM MODULE, NAME : conf_loader

  SEGMENTS IN THE MODULE
  ======================
DATA_I
  Relative segment, address: DATA_AREA 0000041C - 0000041F (0x4 bytes), align: 2
  Segment part 4.             Intra module refs:   LoadConfigData
           ENTRY                   ADDRESS         REF BY
           =====                   =======         ======
           successed_config_filename
                                   0000041C        maincsm_onmessage (main)
    -------------------------------------------------------------------------
CODE
  Relative segment, address: CODE_AREA 00004194 - 00004297 (0x104 bytes), align: 2
  Segment part 7.             Intra module refs:   InitConfig
           ENTRY                   ADDRESS         REF BY
           =====                   =======         ======
           LoadConfigData          00004194 
               stack 1 = 00000000 ( 00000024 )
    -------------------------------------------------------------------------
CODE
  Relative segment, address: CODE_AREA 00004298 - 000042BF (0x28 bytes), align: 2
  Segment part 9.
           ENTRY                   ADDRESS         REF BY
           =====                   =======         ======
           InitConfig              00004298        main (main)
                                                   maincsm_onmessage (main)
               stack 1 = 00000000 ( 00000008 )
    -------------------------------------------------------------------------
DATA_ID
  Relative segment, address: CODE_AREA 0000041C - 0000041F (0x4 bytes), align: 2
  Segment part 5.             Intra module refs:   successed_config_filename
    -------------------------------------------------------------------------
DATA_C
  Relative segment, address: CODE_AREA 0000C427 - 0000C427 (0x1 bytes), align: 0
  Segment part 2.             Intra module refs:   Segment part 5
    -------------------------------------------------------------------------
DATA_C
  Relative segment, address: CODE_AREA 0000B45C - 0000B48B (0x30 bytes), align: 2
  Segment part 3.             Intra module refs:   InitConfig

    *************************************************************************

  FILE NAME : D:\Users\alfinant\Documents\Siemens\Dev\IAR\VK.ELF_C\Releas_NSG\Obj\config.r79
  PROGRAM MODULE, NAME : config

  SEGMENTS IN THE MODULE
  ======================
CONFIG_C
  Relative segment, address: CODE_AREA 0000D118 - 0000D143 (0x2c bytes), align: 2
  Segment part 2. ROOT.
           ENTRY                   ADDRESS         REF BY
           =====                   =======         ======
           cfghdr0                 0000D118        LoadConfigData (conf_loader)
    -------------------------------------------------------------------------
CONFIG_C
  Relative segment, address: CODE_AREA 0000D144 - 0000D1C3 (0x80 bytes), align: 2
  Segment part 3. ROOT.
           ENTRY                   ADDRESS         REF BY
           =====                   =======         ======
           APP_DIR                 0000D144        LoadDynTheme (dyn_theme)
                                                   OpenAboutMenu (Menu_About)
                                                   Segment part 16 (cookie)
                                                   Segment part 25 (anim_widget)
                                                   Segment part 33 (dyn_images)
                                                   Segment part 53 (main)
    -------------------------------------------------------------------------
CONFIG_C
  Relative segment, address: CODE_AREA 0000D1C4 - 0000D1EF (0x2c bytes), align: 2
  Segment part 4. ROOT.
           ENTRY                   ADDRESS         REF BY
           =====                   =======         ======
           cfghdr1                 0000D1C4 
    -------------------------------------------------------------------------
CONFIG_C
  Relative segment, address: CODE_AREA 0000D1F0 - 0000D1F3 (0x4 bytes), align: 2
  Segment part 5. ROOT.
           ENTRY                   ADDRESS         REF BY
           =====                   =======         ======
           CFG_ENA_THEME           0000D1F0        Segment part 12 (dyn_theme)
    -------------------------------------------------------------------------
CONFIG_C
  Relative segment, address: CODE_AREA 0000D1F4 - 0000D21F (0x2c bytes), align: 2
  Segment part 6. ROOT.
           ENTRY                   ADDRESS         REF BY
           =====                   =======         ======
           cfghdr2                 0000D1F4 
    -------------------------------------------------------------------------
CONFIG_C
  Relative segment, address: CODE_AREA 0000D220 - 0000D223 (0x4 bytes), align: 2
  Segment part 7. ROOT.
           ENTRY                   ADDRESS         REF BY
           =====                   =======         ======
           RECONNECT_TIME          0000D220        tmr_check_new_msg_handler (main)
    -------------------------------------------------------------------------
CONFIG_C
  Relative segment, address: CODE_AREA 0000D224 - 0000D24F (0x2c bytes), align: 2
  Segment part 8. ROOT.
           ENTRY                   ADDRESS         REF BY
           =====                   =======         ======
           cfghdr3                 0000D224 
    -------------------------------------------------------------------------
CONFIG_C
  Relative segment, address: CODE_AREA 0000D250 - 0000D257 (0x8 bytes), align: 2
  Segment part 9. ROOT.
           ENTRY                   ADDRESS         REF BY
           =====                   =======         ======
           GMT                     0000D250        CreateChat (Menu_Chat)
                                                   crt_text (Menu_GroupWall)
    -------------------------------------------------------------------------
CONFIG_C
  Relative segment, address: CODE_AREA 0000D258 - 0000D283 (0x2c bytes), align: 2
  Segment part 10. ROOT.
           ENTRY                   ADDRESS         REF BY
           =====                   =======         ======
           cfghdr4                 0000D258 
    -------------------------------------------------------------------------
CONFIG_C
  Relative segment, address: CODE_AREA 0000D284 - 0000D287 (0x4 bytes), align: 2
  Segment part 11. ROOT.
           ENTRY                   ADDRESS         REF BY
           =====                   =======         ======
           soundEnabled            0000D284 
    -------------------------------------------------------------------------
CONFIG_C
  Relative segment, address: CODE_AREA 0000D288 - 0000D2C7 (0x40 bytes), align: 2
  Segment part 12. ROOT.
           ENTRY                   ADDRESS         REF BY
           =====                   =======         ======
           cfgcbox4_2              0000D288 
    -------------------------------------------------------------------------
CONFIG_C
  Relative segment, address: CODE_AREA 0000D2C8 - 0000D2F3 (0x2c bytes), align: 2
  Segment part 13. ROOT.
           ENTRY                   ADDRESS         REF BY
           =====                   =======         ======
           cfghdr5                 0000D2C8 
    -------------------------------------------------------------------------
CONFIG_C
  Relative segment, address: CODE_AREA 0000D2F4 - 0000D2F7 (0x4 bytes), align: 2
  Segment part 14. ROOT.
           ENTRY                   ADDRESS         REF BY
           =====                   =======         ======
           sndVolume               0000D2F4 

    *************************************************************************

  FILE NAME : D:\Users\alfinant\Documents\Siemens\Dev\IAR\VK.ELF_C\Releas_NSG\Obj\conndata.r79
  PROGRAM MODULE, NAME : conndata

  SEGMENTS IN THE MODULE
  ======================
DATA_I
  Relative segment, address: DATA_AREA 00000420 - 00000427 (0x8 bytes), align: 2
  Segment part 3.             Intra module refs:   Segment part 26
                                                   Segment part 4
    -------------------------------------------------------------------------
DATA_Z
  Relative segment, address: CODE_AREA 0000C4BC - 0000C4BF (0x4 bytes), align: 2
  Segment part 6.
           ENTRY                   ADDRESS         REF BY
           =====                   =======         ======
           ALLTOTALRECEIVED        0000C4BC        OnRedraw (debug_gui)
                                                   ssl_get_answer (ssl_work)
    -------------------------------------------------------------------------
DATA_Z
  Relative segment, address: CODE_AREA 0000C4C0 - 0000C4C3 (0x4 bytes), align: 2
  Segment part 7.
           ENTRY                   ADDRESS         REF BY
           =====                   =======         ======
           ALLTOTALSENDED          0000C4C0        OnRedraw (debug_gui)
                                                   send_answer (socket_work)
                                                   ssl_send_answer (ssl_work)
    -------------------------------------------------------------------------
CODE
  Relative segment, address: CODE_AREA 000042C0 - 00004387 (0xc8 bytes), align: 2
  Segment part 9.
           ENTRY                   ADDRESS         REF BY
           =====                   =======         ======
           CONNDATA_new            000042C0        send_answer (socket_work)
                                                   ssl_send_answer (ssl_work)
               stack 1 = 00000000 ( 00000018 )
    -------------------------------------------------------------------------
CODE
  Relative segment, address: CODE_AREA 00004388 - 000043BF (0x38 bytes), align: 2
  Segment part 11.
           ENTRY                   ADDRESS         REF BY
           =====                   =======         ======
           CONNDATA_free           00004388        end_ssl (ssl_work)
               stack 1 = 00000000 ( 00000008 )
    -------------------------------------------------------------------------
CODE
  Relative segment, address: CODE_AREA 000043C0 - 000043D3 (0x14 bytes), align: 2
  Segment part 13.
           ENTRY                   ADDRESS         REF BY
           =====                   =======         ======
           CONNDATA_getTop         000043C0        OnRedraw (debug_gui)
                                                   bread (ssl_work)
                                                   bwrite (ssl_work)
                                                   end_socket_work (socket_work)
                                                   end_ssl_work (ssl_work)
                                                   reconnect_tmr_handler (socket_work)
                                                   tmr_connect_timeout_handler (ssl_work)
                                                   tmr_read_timeout_handler (ssl_work)
    -------------------------------------------------------------------------
CODE
  Relative segment, address: CODE_AREA 000043D4 - 00004407 (0x34 bytes), align: 2
  Segment part 15.
           ENTRY                   ADDRESS         REF BY
           =====                   =======         ======
           CONNDATA_findBySock     000043D4        ssl_connect (ssl_work)
                                                   ssl_socket_msg_handler (ssl_work)
    -------------------------------------------------------------------------
CODE
  Relative segment, address: CODE_AREA 00004408 - 0000443B (0x34 bytes), align: 2
  Segment part 17.
           ENTRY                   ADDRESS         REF BY
           =====                   =======         ======
           CONNDATA_findBySSL      00004408        new_session (ssl_work)
    -------------------------------------------------------------------------
CODE
  Relative segment, address: CODE_AREA 0000443C - 0000446F (0x34 bytes), align: 2
  Segment part 19.
           ENTRY                   ADDRESS         REF BY
           =====                   =======         ======
           CONNDATA_findBySession
                                   0000443C        remove_session (ssl_work)
    -------------------------------------------------------------------------
CODE
  Relative segment, address: CODE_AREA 00004470 - 000044B3 (0x44 bytes), align: 2
  Segment part 21.            Intra module refs:   CONNDATA_findByURL
           ENTRY                   ADDRESS         REF BY
           =====                   =======         ======
           CONNDATA_findByHostname
                                   00004470 
               stack 1 = 00000000 ( 00000010 )
    -------------------------------------------------------------------------
CODE
  Relative segment, address: CODE_AREA 000044B4 - 000044DF (0x2c bytes), align: 2
  Segment part 23.
           ENTRY                   ADDRESS         REF BY
           =====                   =======         ======
           CONNDATA_findByURL      000044B4        send_answer (socket_work)
                                                   ssl_send_answer (ssl_work)
               stack 1 = 00000000 ( 00000044 )
    -------------------------------------------------------------------------
CODE
  Relative segment, address: CODE_AREA 000044E0 - 00004513 (0x34 bytes), align: 2
  Segment part 25.
           ENTRY                   ADDRESS         REF BY
           =====                   =======         ======
           CONNDATA_findByDNR      000044E0        ssl_socket_msg_handler (ssl_work)
    -------------------------------------------------------------------------
CODE
  Relative segment, address: CODE_AREA 00004514 - 00004517 (0x4 bytes), align: 2
  Segment part 26.            Intra module refs:   CONNDATA_findByDNR
                                                   CONNDATA_findByHostname
                                                   CONNDATA_findBySSL
                                                   CONNDATA_findBySession
                                                   CONNDATA_findBySock
                                                   CONNDATA_getTop
                                                   CONNDATA_new
    -------------------------------------------------------------------------
DATA_ID
  Relative segment, address: CODE_AREA 00000420 - 00000427 (0x8 bytes), align: 2
  Segment part 4.             Intra module refs:   Segment part 3
    -------------------------------------------------------------------------
DATA_C
  Relative segment, address: CODE_AREA 0000B48C - 0000B497 (0xc bytes), align: 2
  Segment part 2.             Intra module refs:   CONNDATA_new

    *************************************************************************

  FILE NAME : D:\Users\alfinant\Documents\Siemens\Dev\IAR\VK.ELF_C\Releas_NSG\Obj\cookie.r79
  PROGRAM MODULE, NAME : cookie

  SEGMENTS IN THE MODULE
  ======================
DATA_Z
  Relative segment, address: CODE_AREA 0000C4C4 - 0000C4C7 (0x4 bytes), align: 2
  Segment part 5.             Intra module refs:   Segment part 21
           ENTRY                   ADDRESS         REF BY
           =====                   =======         ======
           cookie_top              0000C4C4 
    -------------------------------------------------------------------------
CODE
  Relative segment, address: CODE_AREA 00004518 - 0000455B (0x44 bytes), align: 2
  Segment part 9.             Intra module refs:   Cookies_SaveAndFree
           ENTRY                   ADDRESS         REF BY
           =====                   =======         ======
           Cookies_Free            00004518 
               stack 1 = 00000000 ( 00000010 )
    -------------------------------------------------------------------------
CODE
  Relative segment, address: CODE_AREA 0000455C - 00004653 (0xf8 bytes), align: 2
  Segment part 11.            Intra module refs:   Cookies_SaveAndFree
           ENTRY                   ADDRESS         REF BY
           =====                   =======         ======
           Cookies_Save            0000455C 
               stack 1 = 00000000 ( 00000094 )
    -------------------------------------------------------------------------
CODE
  Relative segment, address: CODE_AREA 00004654 - 00004663 (0x10 bytes), align: 2
  Segment part 13.
           ENTRY                   ADDRESS         REF BY
           =====                   =======         ======
           Cookies_SaveAndFree     00004654        MainProcess (main)
                                                   Segment part 96 (main)
               stack 1 = 00000000 ( 00000004 )
    -------------------------------------------------------------------------
CODE
  Relative segment, address: CODE_AREA 00004664 - 00004667 (0x4 bytes), align: 2
  Segment part 16.            Intra module refs:   Cookies_Save
    -------------------------------------------------------------------------
CODE
  Relative segment, address: CODE_AREA 00004668 - 00004753 (0xec bytes), align: 2
  Segment part 18.
           ENTRY                   ADDRESS         REF BY
           =====                   =======         ======
           Cookies_Add             00004668        parse_line_SET_COOKIE (htpp)
               stack 1 = 00000000 ( 00000018 )
    -------------------------------------------------------------------------
CODE
  Relative segment, address: CODE_AREA 00004754 - 00004833 (0xe0 bytes), align: 2
  Segment part 20.
           ENTRY                   ADDRESS         REF BY
           =====                   =======         ======
           Cookies_GetByHost       00004754        __create_http_req (htpp)
               stack 1 = 00000000 ( 0000001C )
    -------------------------------------------------------------------------
CODE
  Relative segment, address: CODE_AREA 00004834 - 00004837 (0x4 bytes), align: 2
  Segment part 21.            Intra module refs:   Cookies_Add
                                                   Cookies_Free
                                                   Cookies_GetByHost
                                                   Cookies_Save
    -------------------------------------------------------------------------
DATA_C
  Relative segment, address: CODE_AREA 0000B498 - 0000B4A7 (0x10 bytes), align: 2
  Segment part 2.             Intra module refs:   Cookies_Save
    -------------------------------------------------------------------------
DATA_C
  Relative segment, address: CODE_AREA 0000C428 - 0000C429 (0x2 bytes), align: 0
  Segment part 4.             Intra module refs:   Cookies_GetByHost

    *************************************************************************

  FILE NAME : D:\Users\alfinant\Documents\Siemens\Dev\IAR\VK.ELF_C\Releas_NSG\Obj\debug_gui.r79
  PROGRAM MODULE, NAME : debug_gui

  SEGMENTS IN THE MODULE
  ======================
DATA_Z
  Relative segment, address: CODE_AREA 0000C4C8 - 0000C5C7 (0x100 bytes), align: 2
  Segment part 3.             Intra module refs:   OnRedraw
           ENTRY                   ADDRESS         REF BY
           =====                   =======         ======
           logmsg                  0000C4C8        Segment part 30 (socket_work)
                                                   Segment part 44 (ssl_work)
                                                   Segment part 71 (main)
    -------------------------------------------------------------------------
DATA_C
  Relative segment, address: CODE_AREA 0000B4A8 - 0000B51F (0x78 bytes), align: 2
  Segment part 2.             Intra module refs:   OnRedraw
    -------------------------------------------------------------------------
DATA_Z
  Relative segment, address: CODE_AREA 0000C5C8 - 0000C5CB (0x4 bytes), align: 2
  Segment part 4.             Intra module refs:   Segment part 26
    -------------------------------------------------------------------------
CODE
  Relative segment, address: CODE_AREA 00004838 - 0000486B (0x34 bytes), align: 2
  Segment part 7.             Intra module refs:   OnKey
           ENTRY                   ADDRESS         REF BY
           =====                   =======         ======
           SMART_REDRAW            00004838        MainProcess (main)
                                                   bread (ssl_work)
                                                   connect_socket (socket_work)
                                                   new_session (ssl_work)
                                                   send_answer (socket_work)
                                                   socket_data_read_handler (main)
                                                   ssl_connect (ssl_work)
                                                   ssl_get_answer (ssl_work)
                                                   ssl_send_answer (ssl_work)
                                                   ssl_socket_msg_handler (ssl_work)
               stack 1 = 00000000 ( 00000008 )
    -------------------------------------------------------------------------
CODE
  Relative segment, address: CODE_AREA 0000486C - 00004A5F (0x1f4 bytes), align: 2
  Segment part 9.             Intra module refs:   gui_methods
           LOCAL                   ADDRESS         
           =====                   =======         
           OnRedraw                0000486C 
               stack 1 = 00000000 ( 00000048 )
    -------------------------------------------------------------------------
CODE
  Relative segment, address: CODE_AREA 00004A60 - 00004A7F (0x20 bytes), align: 2
  Segment part 11.            Intra module refs:   gui_methods
           LOCAL                   ADDRESS         
           =====                   =======         
           onCreate                00004A60 
               stack 1 = 00000000 ( 00000008 )
    -------------------------------------------------------------------------
CODE
  Relative segment, address: CODE_AREA 00004A80 - 00004A9F (0x20 bytes), align: 2
  Segment part 13.            Intra module refs:   gui_methods
           LOCAL                   ADDRESS         
           =====                   =======         
           onClose                 00004A80 
               stack 1 = 00000000 ( 00000008 )
    -------------------------------------------------------------------------
CODE
  Relative segment, address: CODE_AREA 00004AA0 - 00004ABB (0x1c bytes), align: 2
  Segment part 15.            Intra module refs:   gui_methods
           LOCAL                   ADDRESS         
           =====                   =======         
           onFocus                 00004AA0 
               stack 1 = 00000000 ( 00000008 )
    -------------------------------------------------------------------------
CODE
  Relative segment, address: CODE_AREA 00004ABC - 00004ACF (0x14 bytes), align: 2
  Segment part 17.            Intra module refs:   gui_methods
           LOCAL                   ADDRESS         
           =====                   =======         
           onUnfocus               00004ABC 
    -------------------------------------------------------------------------
CODE
  Relative segment, address: CODE_AREA 00004AD0 - 00004B17 (0x48 bytes), align: 2
  Segment part 19.            Intra module refs:   gui_methods
           LOCAL                   ADDRESS         
           =====                   =======         
           OnKey                   00004AD0 
               stack 1 = 00000000 ( 00000004 )
    -------------------------------------------------------------------------
CODE
  Relative segment, address: CODE_AREA 00004B18 - 00004B1F (0x8 bytes), align: 2
  Segment part 21.            Intra module refs:   gui_methods
           ENTRY                   ADDRESS         REF BY
           =====                   =======         ======
           method8                 00004B18 
    -------------------------------------------------------------------------
CODE
  Relative segment, address: CODE_AREA 00004B20 - 00004B27 (0x8 bytes), align: 2
  Segment part 23.            Intra module refs:   gui_methods
           ENTRY                   ADDRESS         REF BY
           =====                   =======         ======
           method9                 00004B20 
    -------------------------------------------------------------------------
DATA_C
  Relative segment, address: CODE_AREA 0000B520 - 0000B553 (0x34 bytes), align: 2
  Segment part 5.             Intra module refs:   CreateDebugGUI
           ENTRY                   ADDRESS         REF BY
           =====                   =======         ======
           gui_methods             0000B528 
    -------------------------------------------------------------------------
CODE
  Relative segment, address: CODE_AREA 00004B28 - 00004B97 (0x70 bytes), align: 2
  Segment part 25.
           ENTRY                   ADDRESS         REF BY
           =====                   =======         ======
           CreateDebugGUI          00004B28        ed_inp_onkey (Menu_Login)
                                                   items_menu_onkey (Menu_Dialogs)
                                                   items_menu_onkey (Menu_Groups)
                                                   items_menu_onkey (Menu_Main)
                                                   onKey (Menu_GroupWall)
               stack 1 = 00000000 ( 0000000C )
    -------------------------------------------------------------------------
CODE
  Relative segment, address: CODE_AREA 00004B98 - 00004B9B (0x4 bytes), align: 2
  Segment part 26.            Intra module refs:   CreateDebugGUI
                                                   SMART_REDRAW
                                                   onClose

    *************************************************************************

  FILE NAME : D:\Users\alfinant\Documents\Siemens\Dev\IAR\VK.ELF_C\Releas_NSG\Obj\dyn_images.r79
  PROGRAM MODULE, NAME : dyn_images

  SEGMENTS IN THE MODULE
  ======================
DATA_Z
  Relative segment, address: CODE_AREA 0000C5CC - 0000C5CF (0x4 bytes), align: 2
  Segment part 8.             Intra module refs:   Segment part 36
           ENTRY                   ADDRESS         REF BY
           =====                   =======         ======
           pngtop                  0000C5CC 
    -------------------------------------------------------------------------
DATA_Z
  Relative segment, address: CODE_AREA 0000C5D0 - 0000C5D3 (0x4 bytes), align: 2
  Segment part 9.             Intra module refs:   Segment part 47
           ENTRY                   ADDRESS         REF BY
           =====                   =======         ======
           dyn_pnglist             0000C5D0 
    -------------------------------------------------------------------------
CODE
  Relative segment, address: CODE_AREA 00004B9C - 00004BAF (0x14 bytes), align: 2
  Segment part 11.
           ENTRY                   ADDRESS         REF BY
           =====                   =======         ======
           DisableDynImages        00004B9C        ed_inp_ghook (Menu_Chat)
                                                   ed_inp_ghook (Menu_Login)
                                                   items_menu_ghook (Menu_Dialogs)
                                                   items_menu_ghook (Menu_Groups)
               stack 1 = 00000000 ( 00000004 )
    -------------------------------------------------------------------------
CODE
  Relative segment, address: CODE_AREA 00004BB0 - 00004BC7 (0x18 bytes), align: 2
  Segment part 13.
           ENTRY                   ADDRESS         REF BY
           =====                   =======         ======
           EnableDynImages         00004BB0        ed_inp_ghook (Menu_Chat)
                                                   ed_inp_ghook (Menu_Login)
                                                   items_menu_ghook (Menu_Dialogs)
                                                   items_menu_ghook (Menu_Groups)
                                                   items_menu_ghook (Menu_Main)
               stack 1 = 00000000 ( 00000004 )
    -------------------------------------------------------------------------
CODE
  Relative segment, address: CODE_AREA 00004BC8 - 00004C7F (0xb8 bytes), align: 2
  Segment part 19.            Intra module refs:   LoadSmiles
           LOCAL                   ADDRESS         
           =====                   =======         
           LoadSmilesTo_0xE200     00004BC8 
               stack 1 = 00000000 ( 0000009C )
    -------------------------------------------------------------------------
CODE
  Relative segment, address: CODE_AREA 00004C80 - 00004C83 (0x4 bytes), align: 2
  Segment part 20.            Intra module refs:   LoadSmilesTo_0xE200
    -------------------------------------------------------------------------
CODE
  Relative segment, address: CODE_AREA 00004C84 - 00004CEF (0x6c bytes), align: 2
  Segment part 22.
           ENTRY                   ADDRESS         REF BY
           =====                   =======         ======
           LoadSmiles              00004C84        startApp (main)
               stack 1 = 00000000 ( 00000004 )
    -------------------------------------------------------------------------
CODE
  Relative segment, address: CODE_AREA 00004CF0 - 00004D37 (0x48 bytes), align: 2
  Segment part 24.
           ENTRY                   ADDRESS         REF BY
           =====                   =======         ======
           FreeDynSmiles           00004CF0        maincsm_onclose (main)
               stack 1 = 00000000 ( 00000008 )
    -------------------------------------------------------------------------
CODE
  Relative segment, address: CODE_AREA 00004D38 - 00004D67 (0x30 bytes), align: 2
  Segment part 26.            Intra module refs:   LoadImages
           ENTRY                   ADDRESS         REF BY
           =====                   =======         ======
           PNGLIST_Add             00004D38 
               stack 1 = 00000000 ( 00000008 )
    -------------------------------------------------------------------------
CODE
  Relative segment, address: CODE_AREA 00004D68 - 00004DC7 (0x60 bytes), align: 2
  Segment part 28.
           ENTRY                   ADDRESS         REF BY
           =====                   =======         ======
           PNGLIST_Free            00004D68        maincsm_onclose (main)
               stack 1 = 00000000 ( 00000010 )
    -------------------------------------------------------------------------
CODE
  Relative segment, address: CODE_AREA 00004DC8 - 00004DFF (0x38 bytes), align: 2
  Segment part 30.
           ENTRY                   ADDRESS         REF BY
           =====                   =======         ======
           PNGLIST_GetImgByIndex   00004DC8        items_menu_iconhndl (Menu_Dialogs)
                                                   items_menu_iconhndl (Menu_Groups)
    -------------------------------------------------------------------------
CODE
  Relative segment, address: CODE_AREA 00004E00 - 00004E73 (0x74 bytes), align: 2
  Segment part 32.
           ENTRY                   ADDRESS         REF BY
           =====                   =======         ======
           LoadImages              00004E00        startApp (main)
               stack 1 = 00000000 ( 0000008C )
    -------------------------------------------------------------------------
CODE
  Relative segment, address: CODE_AREA 00004E74 - 00004E77 (0x4 bytes), align: 2
  Segment part 33.            Intra module refs:   LoadImages
                                                   LoadSmilesTo_0xE200
    -------------------------------------------------------------------------
CODE
  Relative segment, address: CODE_AREA 00004E78 - 00004E7B (0x4 bytes), align: 2
  Segment part 36.            Intra module refs:   PNGLIST_Add
                                                   PNGLIST_Free
                                                   PNGLIST_GetImgByIndex
    -------------------------------------------------------------------------
CODE
  Relative segment, address: CODE_AREA 00004E7C - 00004FBB (0x140 bytes), align: 2
  Segment part 40.
           ENTRY                   ADDRESS         REF BY
           =====                   =======         ======
           CreateIMGHDRFromFileAsync
                                   00004E7C        LoadUserPhoto (main)
               stack 1 = 00000000 ( 0000013C )
    -------------------------------------------------------------------------
CODE
  Relative segment, address: CODE_AREA 00004FBC - 00004FBF (0x4 bytes), align: 2
  Segment part 47.            Intra module refs:   EnableDynImages
    -------------------------------------------------------------------------
DATA_C
  Relative segment, address: CODE_AREA 0000B554 - 0000B563 (0x10 bytes), align: 2
  Segment part 2.             Intra module refs:   Segment part 20
    -------------------------------------------------------------------------
DATA_C
  Relative segment, address: CODE_AREA 0000B564 - 0000B58F (0x2c bytes), align: 2
  Segment part 3.             Intra module refs:   LoadImages

    *************************************************************************

  FILE NAME : D:\Users\alfinant\Documents\Siemens\Dev\IAR\VK.ELF_C\Releas_NSG\Obj\dyn_theme.r79
  PROGRAM MODULE, NAME : dyn_theme

  SEGMENTS IN THE MODULE
  ======================
DATA_Z
  Relative segment, address: CODE_AREA 0000C5D4 - 0000C653 (0x80 bytes), align: 2
  Segment part 3.             Intra module refs:   Segment part 13
    -------------------------------------------------------------------------
CODE
  Relative segment, address: CODE_AREA 00004FC0 - 000052CF (0x310 bytes), align: 2
  Segment part 5.
           ENTRY                   ADDRESS         REF BY
           =====                   =======         ======
           LoadDynTheme            00004FC0        ed_inp_ghook (Menu_Chat)
                                                   gHook (Menu_About)
                                                   gHook (Menu_GroupWall)
                                                   startApp (main)
               stack 1 = 00000000 ( 00000090 )
    -------------------------------------------------------------------------
CODE
  Relative segment, address: CODE_AREA 000052D0 - 0000548B (0x1bc bytes), align: 2
  Segment part 7.
           ENTRY                   ADDRESS         REF BY
           =====                   =======         ======
           EnableDynTheme          000052D0        ed_inp_ghook (Menu_Chat)
                                                   ed_inp_ghook (Menu_Login)
                                                   gHook (Menu_About)
                                                   gHook (Menu_GroupWall)
                                                   items_menu_ghook (Menu_Dialogs)
                                                   items_menu_ghook (Menu_Groups)
                                                   items_menu_ghook (Menu_Main)
               stack 1 = 00000000 ( 00000008 )
    -------------------------------------------------------------------------
CODE
  Relative segment, address: CODE_AREA 0000548C - 00005647 (0x1bc bytes), align: 2
  Segment part 9.
           ENTRY                   ADDRESS         REF BY
           =====                   =======         ======
           DisableDynTheme         0000548C        ed_inp_ghook (Menu_Chat)
                                                   ed_inp_ghook (Menu_Login)
                                                   gHook (Menu_About)
                                                   gHook (Menu_GroupWall)
                                                   items_menu_ghook (Menu_Dialogs)
                                                   items_menu_ghook (Menu_Groups)
                                                   items_menu_ghook (Menu_Main)
               stack 1 = 00000000 ( 00000008 )
    -------------------------------------------------------------------------
CODE
  Relative segment, address: CODE_AREA 00005648 - 00005743 (0xfc bytes), align: 2
  Segment part 11.
           ENTRY                   ADDRESS         REF BY
           =====                   =======         ======
           FreeDynTheme            00005648        maincsm_onclose (main)
               stack 1 = 00000000 ( 0000000C )
    -------------------------------------------------------------------------
CODE
  Relative segment, address: CODE_AREA 00005744 - 00005747 (0x4 bytes), align: 2
  Segment part 12.            Intra module refs:   DisableDynTheme
                                                   EnableDynTheme
                                                   FreeDynTheme
                                                   LoadDynTheme
    -------------------------------------------------------------------------
CODE
  Relative segment, address: CODE_AREA 00005748 - 0000574B (0x4 bytes), align: 2
  Segment part 13.            Intra module refs:   DisableDynTheme
                                                   EnableDynTheme
                                                   FreeDynTheme
                                                   LoadDynTheme
    -------------------------------------------------------------------------
DATA_C
  Relative segment, address: CODE_AREA 0000B590 - 0000B633 (0xa4 bytes), align: 2
  Segment part 2.             Intra module refs:   LoadDynTheme

    *************************************************************************

  FILE NAME : D:\Users\alfinant\Documents\Siemens\Dev\IAR\VK.ELF_C\Releas_NSG\Obj\func.r79
  PROGRAM MODULE, NAME : func

  SEGMENTS IN THE MODULE
  ======================
ELFBEGIN
  Relative segment, address: CODE_AREA 00000000, align: 0
  Segment part 0. ROOT.
           ENTRY                   ADDRESS         REF BY
           =====                   =======         ======
           ELF_BEGIN               00000000 
    -------------------------------------------------------------------------
CODE
  Relative segment, address: CODE_AREA 0000574C - 0000574F (0x4 bytes), align: 2
  Segment part 1. ROOT.
           ENTRY                   ADDRESS         REF BY
           =====                   =======         ======
           kill_data               0000574C        ElfKiller (main)
                                                   gui_methods (debug_gui)

    *************************************************************************

  FILE NAME : D:\Users\alfinant\Documents\Siemens\Dev\IAR\VK.ELF_C\Releas_NSG\Obj\htpp.r79
  PROGRAM MODULE, NAME : htpp

  SEGMENTS IN THE MODULE
  ======================
DATA_Z
  Relative segment, address: CODE_AREA 0000C654 - 0000C65F (0xc bytes), align: 2
  Segment part 22.            Intra module refs:   parse_line_HTTP
           ENTRY                   ADDRESS         REF BY
           =====                   =======         ======
           HTTP_STATUS             0000C654        socket_data_read_handler (main)
           HTTP_VER_MAJOR          0000C658 
           HTTP_VER_MINOR          0000C65C 
    -------------------------------------------------------------------------
DATA_Z
  Relative segment, address: CODE_AREA 0000C660 - 0000C663 (0x4 bytes), align: 2
  Segment part 23.            Intra module refs:   parse_line_CONTENT_LENGTH
           ENTRY                   ADDRESS         REF BY
           =====                   =======         ======
           HTTP_CONTENT_LENGTH     0000C660        Segment part 63 (vk_api)
                                                   Segment part 72 (main)
                                                   ssl_get_answer (ssl_work)
    -------------------------------------------------------------------------
DATA_Z
  Relative segment, address: CODE_AREA 0000C664 - 0000C667 (0x4 bytes), align: 2
  Segment part 24.            Intra module refs:   parse_line_CONNECTION
           ENTRY                   ADDRESS         REF BY
           =====                   =======         ======
           HTTP_CONNECTION         0000C664        socket_data_read_handler (main)
    -------------------------------------------------------------------------
DATA_Z
  Relative segment, address: CODE_AREA 0000C668 - 0000C767 (0x100 bytes), align: 2
  Segment part 25.            Intra module refs:   parse_line_CONTENT_TYPE
           ENTRY                   ADDRESS         REF BY
           =====                   =======         ======
           HTTP_CONTENT_TYPE       0000C668        MainProcess (main)
    -------------------------------------------------------------------------
DATA_Z
  Relative segment, address: CODE_AREA 0000C768 - 0000C967 (0x200 bytes), align: 2
  Segment part 26.            Intra module refs:   parse_line_Location
           ENTRY                   ADDRESS         REF BY
           =====                   =======         ======
           HTTP_LOCATION           0000C768 
    -------------------------------------------------------------------------
CODE
  Relative segment, address: CODE_AREA 00005750 - 0000576B (0x1c bytes), align: 2
  Segment part 28.            Intra module refs:   parseLine
                                                   parse_line_CACHE_CONTROL
                                                   parse_line_CONNECTION
                                                   parse_line_CONTENT_LENGTH
                                                   parse_line_CONTENT_TYPE
                                                   parse_line_DATE
                                                   parse_line_HTTP
                                                   parse_line_Location
                                                   parse_line_PRAGMA
                                                   parse_line_SERVER
                                                   parse_line_SET_COOKIE
                                                   parse_line_X_FRAME_OPTIONS
                                                   parse_line_X_POWERED_BY
           ENTRY                   ADDRESS         REF BY
           =====                   =======         ======
           get_line_len            00005750 
    -------------------------------------------------------------------------
CODE
  Relative segment, address: CODE_AREA 0000576C - 000057CB (0x60 bytes), align: 2
  Segment part 30.            Intra module refs:   Segment part 21
           ENTRY                   ADDRESS         REF BY
           =====                   =======         ======
           parse_line_HTTP         0000576C 
               stack 1 = 00000000 ( 00000010 )
    -------------------------------------------------------------------------
CODE
  Relative segment, address: CODE_AREA 000057CC - 000057D7 (0xc bytes), align: 2
  Segment part 32.            Intra module refs:   Segment part 21
           ENTRY                   ADDRESS         REF BY
           =====                   =======         ======
           parse_line_SERVER       000057CC 
               stack 1 = 00000000 ( 00000004 )
    -------------------------------------------------------------------------
CODE
  Relative segment, address: CODE_AREA 000057D8 - 000057E3 (0xc bytes), align: 2
  Segment part 34.            Intra module refs:   Segment part 21
           ENTRY                   ADDRESS         REF BY
           =====                   =======         ======
           parse_line_DATE         000057D8 
               stack 1 = 00000000 ( 00000004 )
    -------------------------------------------------------------------------
CODE
  Relative segment, address: CODE_AREA 000057E4 - 00005833 (0x50 bytes), align: 2
  Segment part 36.            Intra module refs:   Segment part 21
           ENTRY                   ADDRESS         REF BY
           =====                   =======         ======
           parse_line_CONTENT_TYPE
                                   000057E4 
               stack 1 = 00000000 ( 00000010 )
    -------------------------------------------------------------------------
CODE
  Relative segment, address: CODE_AREA 00005834 - 0000588B (0x58 bytes), align: 2
  Segment part 38.            Intra module refs:   Segment part 21
           ENTRY                   ADDRESS         REF BY
           =====                   =======         ======
           parse_line_CONTENT_LENGTH
                                   00005834 
               stack 1 = 00000000 ( 00000014 )
    -------------------------------------------------------------------------
CODE
  Relative segment, address: CODE_AREA 0000588C - 000058EF (0x64 bytes), align: 2
  Segment part 40.            Intra module refs:   Segment part 21
           ENTRY                   ADDRESS         REF BY
           =====                   =======         ======
           parse_line_CONNECTION   0000588C 
               stack 1 = 00000000 ( 00000010 )
    -------------------------------------------------------------------------
CODE
  Relative segment, address: CODE_AREA 000058F0 - 000058FB (0xc bytes), align: 2
  Segment part 42.            Intra module refs:   Segment part 21
           ENTRY                   ADDRESS         REF BY
           =====                   =======         ======
           parse_line_X_POWERED_BY
                                   000058F0 
               stack 1 = 00000000 ( 00000004 )
    -------------------------------------------------------------------------
CODE
  Relative segment, address: CODE_AREA 000058FC - 00005987 (0x8c bytes), align: 2
  Segment part 44.            Intra module refs:   Segment part 21
           ENTRY                   ADDRESS         REF BY
           =====                   =======         ======
           parse_line_SET_COOKIE   000058FC 
               stack 1 = 00000000 ( 00000150 )
    -------------------------------------------------------------------------
CODE
  Relative segment, address: CODE_AREA 00005988 - 00005993 (0xc bytes), align: 2
  Segment part 46.            Intra module refs:   Segment part 21
           ENTRY                   ADDRESS         REF BY
           =====                   =======         ======
           parse_line_PRAGMA       00005988 
               stack 1 = 00000000 ( 00000004 )
    -------------------------------------------------------------------------
CODE
  Relative segment, address: CODE_AREA 00005994 - 0000599F (0xc bytes), align: 2
  Segment part 48.            Intra module refs:   Segment part 21
           ENTRY                   ADDRESS         REF BY
           =====                   =======         ======
           parse_line_CACHE_CONTROL
                                   00005994 
               stack 1 = 00000000 ( 00000004 )
    -------------------------------------------------------------------------
CODE
  Relative segment, address: CODE_AREA 000059A0 - 000059AB (0xc bytes), align: 2
  Segment part 50.            Intra module refs:   Segment part 21
           ENTRY                   ADDRESS         REF BY
           =====                   =======         ======
           parse_line_X_FRAME_OPTIONS
                                   000059A0 
               stack 1 = 00000000 ( 00000004 )
    -------------------------------------------------------------------------
CODE
  Relative segment, address: CODE_AREA 000059AC - 000059FF (0x54 bytes), align: 2
  Segment part 52.            Intra module refs:   Segment part 21
           ENTRY                   ADDRESS         REF BY
           =====                   =======         ======
           parse_line_Location     000059AC 
               stack 1 = 00000000 ( 00000010 )
    -------------------------------------------------------------------------
CODE
  Relative segment, address: CODE_AREA 00005A00 - 00005A0F (0x10 bytes), align: 2
  Segment part 54.            Intra module refs:   Segment part 21
           ENTRY                   ADDRESS         REF BY
           =====                   =======         ======
           parse_line_RN           00005A00 
    -------------------------------------------------------------------------
DATA_I
  Relative segment, address: DATA_AREA 00000428 - 00000713 (0x2ec bytes), align: 2
  Segment part 20.            Intra module refs:   ParseHeader
                                                   __create_http_req
           ENTRY                   ADDRESS         REF BY
           =====                   =======         ======
           HTTP_HEADER_LENGTH      000004D0        Segment part 61 (vk_api)
                                                   Segment part 70 (main)
                                                   ssl_get_answer (ssl_work)
           HTTP_URL                00000514        Segment part 73 (main)
           response_headers        00000428 
    -------------------------------------------------------------------------
CODE
  Relative segment, address: CODE_AREA 00005A10 - 00005A87 (0x78 bytes), align: 2
  Segment part 58.            Intra module refs:   ParseHeader
           ENTRY                   ADDRESS         REF BY
           =====                   =======         ======
           parseLine               00005A10 
               stack 1 = 00000000 ( 00000014 )
    -------------------------------------------------------------------------
CODE
  Relative segment, address: CODE_AREA 00005A88 - 00005B1F (0x98 bytes), align: 2
  Segment part 60.
           ENTRY                   ADDRESS         REF BY
           =====                   =======         ======
           ParseHeader             00005A88        socket_data_read_handler (main)
               stack 1 = 00000000 ( 00000010 )
    -------------------------------------------------------------------------
CODE
  Relative segment, address: CODE_AREA 00005B20 - 00005BB3 (0x94 bytes), align: 2
  Segment part 62.            Intra module refs:   __create_http_req
           ENTRY                   ADDRESS         REF BY
           =====                   =======         ======
           get_path_from_url       00005B20 
               stack 1 = 00000000 ( 00000014 )
    -------------------------------------------------------------------------
CODE
  Relative segment, address: CODE_AREA 00005BB4 - 00005D43 (0x190 bytes), align: 2
  Segment part 64.            Intra module refs:   HttpSendReq
           LOCAL                   ADDRESS         
           =====                   =======         
           __create_http_req       00005BB4 
               stack 1 = 00000000 ( 0000121C )
    -------------------------------------------------------------------------
CODE
  Relative segment, address: CODE_AREA 00005D44 - 00005DA3 (0x60 bytes), align: 2
  Segment part 66.
           ENTRY                   ADDRESS         REF BY
           =====                   =======         ======
           HttpSendReq             00005D44        Segment part 23 (Menu_Dialogs)
                                                   Segment part 30 (Menu_GroupWall)
                                                   ed_inp_onkey (Menu_Login)
                                                   items_menu_onkey (Menu_Groups)
                                                   tmr_check_new_msg_handler (main)
               stack 1 = 00000000 ( 00000018 )
    -------------------------------------------------------------------------
CODE
  Relative segment, address: CODE_AREA 00005DA4 - 00005DA7 (0x4 bytes), align: 2
  Segment part 69.            Intra module refs:   HttpSendReq
    -------------------------------------------------------------------------
DATA_ID
  Relative segment, address: CODE_AREA 00000428 - 00000713 (0x2ec bytes), align: 2
  Segment part 21.            Intra module refs:   Segment part 20
    -------------------------------------------------------------------------
DATA_C
  Relative segment, address: CODE_AREA 0000B634 - 0000B63F (0xc bytes), align: 2
  Segment part 2.             Intra module refs:   Segment part 21
    -------------------------------------------------------------------------
DATA_C
  Relative segment, address: CODE_AREA 0000B640 - 0000B64B (0xc bytes), align: 2
  Segment part 3.             Intra module refs:   parse_line_CONNECTION
    -------------------------------------------------------------------------
DATA_C
  Relative segment, address: CODE_AREA 0000B64C - 0000B66F (0x24 bytes), align: 2
  Segment part 4.             Intra module refs:   parse_line_SET_COOKIE
    -------------------------------------------------------------------------
DATA_C
  Relative segment, address: CODE_AREA 0000B670 - 0000B707 (0x98 bytes), align: 2
  Segment part 5.             Intra module refs:   __create_http_req
    -------------------------------------------------------------------------
DATA_C
  Relative segment, address: CODE_AREA 0000B708 - 0000B70F (0x8 bytes), align: 2
  Segment part 6.             Intra module refs:   Segment part 21
    -------------------------------------------------------------------------
DATA_C
  Relative segment, address: CODE_AREA 0000B710 - 0000B717 (0x8 bytes), align: 2
  Segment part 7.             Intra module refs:   Segment part 21
    -------------------------------------------------------------------------
DATA_C
  Relative segment, address: CODE_AREA 0000B718 - 0000B71F (0x8 bytes), align: 2
  Segment part 8.             Intra module refs:   Segment part 21
    -------------------------------------------------------------------------
DATA_C
  Relative segment, address: CODE_AREA 0000B720 - 0000B72F (0x10 bytes), align: 2
  Segment part 9.             Intra module refs:   Segment part 21
    -------------------------------------------------------------------------
DATA_C
  Relative segment, address: CODE_AREA 0000B730 - 0000B73F (0x10 bytes), align: 2
  Segment part 10.            Intra module refs:   Segment part 21
    -------------------------------------------------------------------------
DATA_C
  Relative segment, address: CODE_AREA 0000B740 - 0000B74B (0xc bytes), align: 2
  Segment part 11.            Intra module refs:   Segment part 21
    -------------------------------------------------------------------------
DATA_C
  Relative segment, address: CODE_AREA 0000B74C - 0000B75B (0x10 bytes), align: 2
  Segment part 12.            Intra module refs:   Segment part 21
    -------------------------------------------------------------------------
DATA_C
  Relative segment, address: CODE_AREA 0000B75C - 0000B767 (0xc bytes), align: 2
  Segment part 13.            Intra module refs:   Segment part 69
    -------------------------------------------------------------------------
DATA_C
  Relative segment, address: CODE_AREA 0000B768 - 0000B76F (0x8 bytes), align: 2
  Segment part 14.            Intra module refs:   Segment part 21
    -------------------------------------------------------------------------
DATA_C
  Relative segment, address: CODE_AREA 0000B770 - 0000B77F (0x10 bytes), align: 2
  Segment part 15.            Intra module refs:   Segment part 21
    -------------------------------------------------------------------------
DATA_C
  Relative segment, address: CODE_AREA 0000B780 - 0000B793 (0x14 bytes), align: 2
  Segment part 16.            Intra module refs:   Segment part 21
    -------------------------------------------------------------------------
DATA_C
  Relative segment, address: CODE_AREA 0000B794 - 0000B79F (0xc bytes), align: 2
  Segment part 17.            Intra module refs:   Segment part 21
    -------------------------------------------------------------------------
DATA_C
  Relative segment, address: CODE_AREA 0000C42A - 0000C42C (0x3 bytes), align: 0
  Segment part 18.            Intra module refs:   Segment part 21
    -------------------------------------------------------------------------
DATA_C
  Relative segment, address: CODE_AREA 0000B7A0 - 0000B7AF (0x10 bytes), align: 2
  Segment part 19.            Intra module refs:   parse_line_HTTP

    *************************************************************************

  FILE NAME : D:\Users\alfinant\Documents\Siemens\Dev\IAR\VK.ELF_C\Releas_NSG\Obj\main.r79
  PROGRAM MODULE, NAME : main

  SEGMENTS IN THE MODULE
  ======================
DATA_C
  Relative segment, address: CODE_AREA 0000B7B0 - 0000B7C7 (0x18 bytes), align: 2
  Segment part 2.             Intra module refs:   LoadUserPhoto
    -------------------------------------------------------------------------
DATA_C
  Relative segment, address: CODE_AREA 0000B7C8 - 0000B7E7 (0x20 bytes), align: 2
  Segment part 3.             Intra module refs:   DoError
    -------------------------------------------------------------------------
DATA_C
  Relative segment, address: CODE_AREA 0000B7E8 - 0000B853 (0x6c bytes), align: 2
  Segment part 4.             Intra module refs:   MainProcess
    -------------------------------------------------------------------------
DATA_C
  Relative segment, address: CODE_AREA 0000B854 - 0000B8B3 (0x60 bytes), align: 2
  Segment part 5.             Intra module refs:   Segment part 69
           ENTRY                   ADDRESS         REF BY
           =====                   =======         ======
           ipc_my_name             0000B854 
           ipc_xtask_name          0000B8AC 
    -------------------------------------------------------------------------
DATA_C
  Relative segment, address: CODE_AREA 0000B8B4 - 0000B8EB (0x38 bytes), align: 2
  Segment part 6.             Intra module refs:   socket_error_handler
    -------------------------------------------------------------------------
CODE
  Relative segment, address: CODE_AREA 00005DA8 - 00005E63 (0xbc bytes), align: 2
  Segment part 19.            Intra module refs:   MainProcess
           ENTRY                   ADDRESS         REF BY
           =====                   =======         ======
           tmr_check_new_msg_handler
                                   00005DA8 
               stack 1 = 00000000 ( 00000014 )
    -------------------------------------------------------------------------
CODE
  Relative segment, address: CODE_AREA 00005E64 - 00005F83 (0x120 bytes), align: 2
  Segment part 23.
           ENTRY                   ADDRESS         REF BY
           =====                   =======         ======
           LoadUserPhoto           00005E64        RefreshDialogsMenu (Menu_Dialogs)
               stack 1 = 00000000 ( 000000C8 )
    -------------------------------------------------------------------------
CODE
  Relative segment, address: CODE_AREA 00005F84 - 00005FEF (0x6c bytes), align: 2
  Segment part 25.            Intra module refs:   MainProcess
           LOCAL                   ADDRESS         
           =====                   =======         
           SaveDialogs             00005F84 
               stack 1 = 00000000 ( 00000114 )
    -------------------------------------------------------------------------
CODE
  Relative segment, address: CODE_AREA 00005FF0 - 0000605B (0x6c bytes), align: 2
  Segment part 27.            Intra module refs:   MainProcess
           LOCAL                   ADDRESS         
           =====                   =======         
           SaveGroups              00005FF0 
               stack 1 = 00000000 ( 00000114 )
    -------------------------------------------------------------------------
CODE
  Relative segment, address: CODE_AREA 0000605C - 0000611B (0xc0 bytes), align: 2
  Segment part 29.
           ENTRY                   ADDRESS         REF BY
           =====                   =======         ======
           LoadSavedDialogs        0000605C        items_menu_ghook (Menu_Dialogs)
               stack 1 = 00000000 ( 000000C0 )
    -------------------------------------------------------------------------
CODE
  Relative segment, address: CODE_AREA 0000611C - 0000611F (0x4 bytes), align: 2
  Segment part 30.            Intra module refs:   LoadSavedDialogs
                                                   LoadUserPhoto
    -------------------------------------------------------------------------
CODE
  Relative segment, address: CODE_AREA 00006120 - 00006123 (0x4 bytes), align: 2
  Segment part 31.            Intra module refs:   LoadSavedDialogs
                                                   SaveDialogs
    -------------------------------------------------------------------------
CODE
  Relative segment, address: CODE_AREA 00006124 - 000061E7 (0xc4 bytes), align: 2
  Segment part 33.
           ENTRY                   ADDRESS         REF BY
           =====                   =======         ======
           LoadSavedGroups         00006124        items_menu_ghook (Menu_Groups)
               stack 1 = 00000000 ( 000000C0 )
    -------------------------------------------------------------------------
CODE
  Relative segment, address: CODE_AREA 000061E8 - 000061EB (0x4 bytes), align: 2
  Segment part 34.            Intra module refs:   LoadSavedGroups
                                                   SaveGroups
    -------------------------------------------------------------------------
CODE
  Relative segment, address: CODE_AREA 000061EC - 0000625F (0x74 bytes), align: 2
  Segment part 36.            Intra module refs:   MainProcess
           LOCAL                   ADDRESS         
           =====                   =======         
           save_token              000061EC 
               stack 1 = 00000000 ( 00000110 )
    -------------------------------------------------------------------------
CODE
  Relative segment, address: CODE_AREA 00006260 - 000062B7 (0x58 bytes), align: 2
  Segment part 38.            Intra module refs:   Logout
           LOCAL                   ADDRESS         
           =====                   =======         
           del_token               00006260 
               stack 1 = 00000000 ( 00000108 )
    -------------------------------------------------------------------------
CODE
  Relative segment, address: CODE_AREA 000062B8 - 00006317 (0x60 bytes), align: 2
  Segment part 40.            Intra module refs:   DoError
           ENTRY                   ADDRESS         REF BY
           =====                   =======         ======
           Logout                  000062B8        items_menu_onkey (Menu_Main)
               stack 1 = 00000000 ( 00000008 )
    -------------------------------------------------------------------------
CODE
  Relative segment, address: CODE_AREA 00006318 - 0000636B (0x54 bytes), align: 2
  Segment part 42.            Intra module refs:   MainProcess
           LOCAL                   ADDRESS         
           =====                   =======         
           DoError                 00006318 
               stack 1 = 00000000 ( 00000004 )
    -------------------------------------------------------------------------
CODE
  Relative segment, address: CODE_AREA 0000636C - 0000669F (0x334 bytes), align: 2
  Segment part 44.            Intra module refs:   maincsm_onmessage
           LOCAL                   ADDRESS         
           =====                   =======         
           MainProcess             0000636C 
               stack 1 = 00000000 ( 000001C4 )
    -------------------------------------------------------------------------
CODE
  Relative segment, address: CODE_AREA 000066A0 - 000066DB (0x3c bytes), align: 2
  Segment part 46.            Intra module refs:   Segment part 10
           LOCAL                   ADDRESS         
           =====                   =======         
           maincsm_oncreate        000066A0 
               stack 1 = 00000000 ( 00000004 )
    -------------------------------------------------------------------------
CODE
  Relative segment, address: CODE_AREA 000066DC - 000066F7 (0x1c bytes), align: 2
  Segment part 48.            Intra module refs:   maincsm_onclose
           ENTRY                   ADDRESS         REF BY
           =====                   =======         ======
           ElfKiller               000066DC 
               stack 1 = 00000000 ( 00000004 )
    -------------------------------------------------------------------------
CODE
  Relative segment, address: CODE_AREA 000066F8 - 0000675B (0x64 bytes), align: 2
  Segment part 50.            Intra module refs:   Segment part 10
           LOCAL                   ADDRESS         
           =====                   =======         
           maincsm_onclose         000066F8 
               stack 1 = 00000000 ( 00000004 )
    -------------------------------------------------------------------------
CODE
  Relative segment, address: CODE_AREA 0000675C - 00006843 (0xe8 bytes), align: 2
  Segment part 52.            Intra module refs:   CheckDoubleRun
           ENTRY                   ADDRESS         REF BY
           =====                   =======         ======
           startApp                0000675C 
               stack 1 = 00000000 ( 000000C0 )
    -------------------------------------------------------------------------
CODE
  Relative segment, address: CODE_AREA 00006844 - 00006847 (0x4 bytes), align: 2
  Segment part 53.            Intra module refs:   LoadSavedDialogs
                                                   LoadSavedGroups
                                                   LoadUserPhoto
                                                   MainProcess
                                                   SaveDialogs
                                                   SaveGroups
                                                   del_token
                                                   save_token
                                                   startApp
    -------------------------------------------------------------------------
CODE
  Relative segment, address: CODE_AREA 00006848 - 0000684B (0x4 bytes), align: 2
  Segment part 54.            Intra module refs:   del_token
                                                   save_token
                                                   startApp
    -------------------------------------------------------------------------
CODE
  Relative segment, address: CODE_AREA 0000684C - 0000684F (0x4 bytes), align: 2
  Segment part 55.            Intra module refs:   del_token
                                                   save_token
                                                   startApp
    -------------------------------------------------------------------------
CODE
  Relative segment, address: CODE_AREA 00006850 - 00006853 (0x4 bytes), align: 2
  Segment part 56.            Intra module refs:   DoError
                                                   Logout
                                                   MainProcess
                                                   startApp
                                                   tmr_check_new_msg_handler
    -------------------------------------------------------------------------
CODE
  Relative segment, address: CODE_AREA 00006854 - 000068B3 (0x60 bytes), align: 2
  Segment part 58.            Intra module refs:   maincsm_onmessage
           ENTRY                   ADDRESS         REF BY
           =====                   =======         ======
           CheckDoubleRun          00006854 
               stack 1 = 00000000 ( 00000008 )
    -------------------------------------------------------------------------
CODE
  Relative segment, address: CODE_AREA 000068B4 - 00006983 (0xd0 bytes), align: 2
  Segment part 60.            Intra module refs:   Segment part 15
           LOCAL                   ADDRESS         
           =====                   =======         
           HandleObsFrameUpdate    000068B4 
               stack 1 = 00000000 ( 0000001C )
    -------------------------------------------------------------------------
CODE
  Relative segment, address: CODE_AREA 00006984 - 00006987 (0x4 bytes), align: 2
  Segment part 61.            Intra module refs:   HandleObsFrameUpdate
                                                   LoadUserPhoto
                                                   Logout
                                                   MainProcess
                                                   startApp
                                                   tmr_check_new_msg_handler
    -------------------------------------------------------------------------
CODE
  Relative segment, address: CODE_AREA 00006988 - 000069EB (0x64 bytes), align: 2
  Segment part 63.            Intra module refs:   Segment part 15
           LOCAL                   ADDRESS         
           =====                   =======         
           HandleObsError          00006988 
               stack 1 = 00000000 ( 00000008 )
    -------------------------------------------------------------------------
DATA_I
  Relative segment, address: DATA_AREA 00000714 - 00000753 (0x40 bytes), align: 2
  Segment part 14.            Intra module refs:   Segment part 61
                                                   Segment part 66
                                                   Segment part 74
                                                   main
                                                   maincsm_onclose
           ENTRY                   ADDRESS         REF BY
           =====                   =======         ======
           csm                     00000728        AnimWidget_Wait_fn (anim_widget)
                                                   RefreshDialogsMenu (Menu_Dialogs)
                                                   Segment part 22 (Menu_Chat)
                                                   Segment part 41 (Menu_GroupWall)
           ipc                     00000714 
           maincsm_id              00000724 
    -------------------------------------------------------------------------
CODE
  Relative segment, address: CODE_AREA 000069EC - 00006B9F (0x1b4 bytes), align: 2
  Segment part 65.            Intra module refs:   Segment part 10
           LOCAL                   ADDRESS         
           =====                   =======         
           maincsm_onmessage       000069EC 
               stack 1 = 00000000 ( 0000001C )
    -------------------------------------------------------------------------
CODE
  Relative segment, address: CODE_AREA 00006BA0 - 00006BA3 (0x4 bytes), align: 2
  Segment part 66.            Intra module refs:   maincsm_onmessage
    -------------------------------------------------------------------------
CODE
  Relative segment, address: CODE_AREA 00006BA4 - 00006CD3 (0x130 bytes), align: 2
  Segment part 68.            Intra module refs:   main
           LOCAL                   ADDRESS         
           =====                   =======         
           socket_data_read_handler
                                   00006BA4 
               stack 1 = 00000000 ( 00000030 )
    -------------------------------------------------------------------------
CODE
  Relative segment, address: CODE_AREA 00006CD4 - 00006CD7 (0x4 bytes), align: 2
  Segment part 69.            Intra module refs:   CheckDoubleRun
                                                   HandleObsError
                                                   maincsm_oncreate
                                                   maincsm_onmessage
                                                   socket_data_read_handler
    -------------------------------------------------------------------------
CODE
  Relative segment, address: CODE_AREA 00006CD8 - 00006CDB (0x4 bytes), align: 2
  Segment part 70.            Intra module refs:   MainProcess
                                                   socket_data_read_handler
    -------------------------------------------------------------------------
CODE
  Relative segment, address: CODE_AREA 00006CDC - 00006CDF (0x4 bytes), align: 2
  Segment part 71.            Intra module refs:   DoError
                                                   MainProcess
                                                   socket_data_read_handler
    -------------------------------------------------------------------------
CODE
  Relative segment, address: CODE_AREA 00006CE0 - 00006CE3 (0x4 bytes), align: 2
  Segment part 72.            Intra module refs:   MainProcess
                                                   socket_data_read_handler
    -------------------------------------------------------------------------
CODE
  Relative segment, address: CODE_AREA 00006CE4 - 00006CE7 (0x4 bytes), align: 2
  Segment part 73.            Intra module refs:   maincsm_onmessage
                                                   socket_data_read_handler
    -------------------------------------------------------------------------
CODE
  Relative segment, address: CODE_AREA 00006CE8 - 00006CEB (0x4 bytes), align: 2
  Segment part 74.            Intra module refs:   CheckDoubleRun
                                                   HandleObsError
                                                   maincsm_oncreate
                                                   socket_data_read_handler
    -------------------------------------------------------------------------
CODE
  Relative segment, address: CODE_AREA 00006CEC - 00006CFB (0x10 bytes), align: 2
  Segment part 76.            Intra module refs:   main
           LOCAL                   ADDRESS         
           =====                   =======         
           socket_remote_closed_handler
                                   00006CEC 
    -------------------------------------------------------------------------
CODE
  Relative segment, address: CODE_AREA 00006CFC - 00006D73 (0x78 bytes), align: 2
  Segment part 78.            Intra module refs:   main
           LOCAL                   ADDRESS         
           =====                   =======         
           socket_error_handler    00006CFC 
               stack 1 = 00000000 ( 00000008 )
    -------------------------------------------------------------------------
CODE
  Relative segment, address: CODE_AREA 00006D74 - 00006D77 (0x4 bytes), align: 2
  Segment part 79.            Intra module refs:   socket_data_read_handler
                                                   socket_error_handler
                                                   socket_remote_closed_handler
    -------------------------------------------------------------------------
DATA_Z
  Relative segment, address: CODE_AREA 0000C968 - 0000CA7F (0x118 bytes), align: 2
  Segment part 17.            Intra module refs:   Segment part 10
    -------------------------------------------------------------------------
DATA_C
  Relative segment, address: CODE_AREA 0000B8EC - 0000B937 (0x4c bytes), align: 2
  Segment part 10.            Intra module refs:   main
    -------------------------------------------------------------------------
DATA_C
  Relative segment, address: CODE_AREA 0000B938 - 0000B947 (0x10 bytes), align: 2
  Segment part 11.            Intra module refs:   Segment part 31
    -------------------------------------------------------------------------
DATA_C
  Relative segment, address: CODE_AREA 0000B948 - 0000B957 (0x10 bytes), align: 2
  Segment part 12.            Intra module refs:   Segment part 34
    -------------------------------------------------------------------------
DATA_C
  Relative segment, address: CODE_AREA 0000B958 - 0000B95F (0x8 bytes), align: 2
  Segment part 13.            Intra module refs:   Segment part 54
    -------------------------------------------------------------------------
DATA_C
  Relative segment, address: CODE_AREA 0000B960 - 0000B963 (0x4 bytes), align: 2
  Segment part 16.            Intra module refs:   Segment part 10
    -------------------------------------------------------------------------
CODE
  Relative segment, address: CODE_AREA 00006D78 - 00006DF3 (0x7c bytes), align: 2
  Segment part 81.
           ENTRY                   ADDRESS         REF BY
           =====                   =======         ======
           main                    00006D78        Absolute parts (?ABS_ENTRY_MOD)
               stack 1 = 00000000 ( 0000004C )
    -------------------------------------------------------------------------
CODE
  Relative segment, address: CODE_AREA 00006DF4 - 00006DF7 (0x4 bytes), align: 2
  Segment part 96.            Intra module refs:   maincsm_onclose
    -------------------------------------------------------------------------
DATA_ID
  Relative segment, address: CODE_AREA 00000714 - 00000753 (0x40 bytes), align: 2
  Segment part 15.            Intra module refs:   Segment part 14

    *************************************************************************

  FILE NAME : D:\Users\alfinant\Documents\Siemens\Dev\IAR\VK.ELF_C\Releas_NSG\Obj\parser_error.r79
  PROGRAM MODULE, NAME : parser_error

  SEGMENTS IN THE MODULE
  ======================
DATA_C
  Relative segment, address: CODE_AREA 0000B964 - 0000B97B (0x18 bytes), align: 2
  Segment part 2.             Intra module refs:   __parse_obj_Error
    -------------------------------------------------------------------------
DATA_Z
  Relative segment, address: CODE_AREA 0000CA80 - 0000CB83 (0x104 bytes), align: 2
  Segment part 3.             Intra module refs:   __parse_obj_Error
           ENTRY                   ADDRESS         REF BY
           =====                   =======         ======
           error_code              0000CA80 
           error_msg               0000CA84        DoError (main)
                                                   parse_answer_auth_direct (vk_api)
    -------------------------------------------------------------------------
CODE
  Relative segment, address: CODE_AREA 00006DF8 - 00006E53 (0x5c bytes), align: 2
  Segment part 5.
           ENTRY                   ADDRESS         REF BY
           =====                   =======         ======
           __parse_obj_Error       00006DF8        parse_answer_groups_get (vk_api)
                                                   parse_answer_messages_getConversations (vk_api)
                                                   parse_answer_messages_getLongPollServer (vk_api)
                                                   parse_answer_wall_get (parser_wall)
               stack 1 = 00000000 ( 00000014 )

    *************************************************************************

  FILE NAME : D:\Users\alfinant\Documents\Siemens\Dev\IAR\VK.ELF_C\Releas_NSG\Obj\parser_user.r79
  PROGRAM MODULE, NAME : parser_user

  SEGMENTS IN THE MODULE
  ======================
DATA_C
  Relative segment, address: CODE_AREA 0000B97C - 0000B9D3 (0x58 bytes), align: 2
  Segment part 2.             Intra module refs:   parse_obj_User
    -------------------------------------------------------------------------
CODE
  Relative segment, address: CODE_AREA 00006E54 - 00006F6F (0x11c bytes), align: 2
  Segment part 4.             Intra module refs:   parse_obj_profiles
           ENTRY                   ADDRESS         REF BY
           =====                   =======         ======
           parse_obj_User          00006E54 
               stack 1 = 00000000 ( 00000014 )
    -------------------------------------------------------------------------
CODE
  Relative segment, address: CODE_AREA 00006F70 - 00006FD7 (0x68 bytes), align: 2
  Segment part 6.
           ENTRY                   ADDRESS         REF BY
           =====                   =======         ======
           parse_obj_profiles      00006F70        parse_answer_wall_get (parser_wall)
               stack 1 = 00000000 ( 0000000C )

    *************************************************************************

  FILE NAME : D:\Users\alfinant\Documents\Siemens\Dev\IAR\VK.ELF_C\Releas_NSG\Obj\parser_wall.r79
  PROGRAM MODULE, NAME : parser_wall

  SEGMENTS IN THE MODULE
  ======================
DATA_C
  Relative segment, address: CODE_AREA 0000B9D4 - 0000BA67 (0x94 bytes), align: 2
  Segment part 3.             Intra module refs:   parse_answer_wall_get
    -------------------------------------------------------------------------
CODE
  Relative segment, address: CODE_AREA 00006FD8 - 0000730B (0x334 bytes), align: 2
  Segment part 5.
           ENTRY                   ADDRESS         REF BY
           =====                   =======         ======
           parse_answer_wall_get   00006FD8        MainProcess (main)
               stack 1 = 00000000 ( 00000038 )

    *************************************************************************

  FILE NAME : D:\Users\alfinant\Documents\Siemens\Dev\IAR\VK.ELF_C\Releas_NSG\Obj\process.r79
  PROGRAM MODULE, NAME : process

  SEGMENTS IN THE MODULE
  ======================
DATA_Z
  Relative segment, address: CODE_AREA 0000CB84 - 0000CB87 (0x4 bytes), align: 2
  Segment part 2.
           ENTRY                   ADDRESS         REF BY
           =====                   =======         ======
           INET_PROCESS            0000CB84        Segment part 24 (Menu_Dialogs)
                                                   Segment part 28 (Menu_Login)
                                                   Segment part 29 (Menu_GroupWall)
                                                   Segment part 56 (main)
                                                   Segment part 79 (main)
                                                   ed_inp_ghook (Menu_Chat)
                                                   items_menu_onkey (Menu_Groups)

    *************************************************************************

  FILE NAME : D:\Users\alfinant\Documents\Siemens\Dev\IAR\VK.ELF_C\Releas_NSG\Obj\socket_work.r79
  PROGRAM MODULE, NAME : socket_work

  SEGMENTS IN THE MODULE
  ======================
CODE
  Relative segment, address: CODE_AREA 0000730C - 0000731F (0x14 bytes), align: 2
  Segment part 11.
           ENTRY                   ADDRESS         REF BY
           =====                   =======         ======
           socket_work_init        0000730C        main (main)
    -------------------------------------------------------------------------
CODE
  Relative segment, address: CODE_AREA 00007320 - 0000734F (0x30 bytes), align: 2
  Segment part 13.            Intra module refs:   end_socket_work
           ENTRY                   ADDRESS         REF BY
           =====                   =======         ======
           end_socket              00007320        socket_data_read_handler (main)
               stack 1 = 00000000 ( 00000008 )
    -------------------------------------------------------------------------
CODE
  Relative segment, address: CODE_AREA 00007350 - 00007377 (0x28 bytes), align: 2
  Segment part 15.
           ENTRY                   ADDRESS         REF BY
           =====                   =======         ======
           end_socket_work         00007350        maincsm_onclose (main)
               stack 1 = 00000000 ( 00000004 )
    -------------------------------------------------------------------------
CODE
  Relative segment, address: CODE_AREA 00007378 - 000073AF (0x38 bytes), align: 2
  Segment part 17.            Intra module refs:   reconnect
           LOCAL                   ADDRESS         
           =====                   =======         
           reconnect_tmr_handler   00007378 
               stack 1 = 00000000 ( 00000004 )
    -------------------------------------------------------------------------
CODE
  Relative segment, address: CODE_AREA 000073B0 - 000073CB (0x1c bytes), align: 2
  Segment part 19.            Intra module refs:   connect_socket
           ENTRY                   ADDRESS         REF BY
           =====                   =======         ======
           reconnect               000073B0        ssl_socket_msg_handler (ssl_work)
               stack 1 = 00000000 ( 00000004 )
    -------------------------------------------------------------------------
CODE
  Relative segment, address: CODE_AREA 000073CC - 000073CF (0x4 bytes), align: 2
  Segment part 20.            Intra module refs:   end_socket
                                                   end_socket_work
                                                   reconnect
    -------------------------------------------------------------------------
CODE
  Relative segment, address: CODE_AREA 000073D0 - 000075D7 (0x208 bytes), align: 2
  Segment part 22.            Intra module refs:   reconnect_tmr_handler
                                                   send_answer
           ENTRY                   ADDRESS         REF BY
           =====                   =======         ======
           connect_socket          000073D0        ssl_send_answer (ssl_work)
                                                   ssl_socket_msg_handler (ssl_work)
               stack 1 = 00000000 ( 00000028 )
    -------------------------------------------------------------------------
CODE
  Relative segment, address: CODE_AREA 000075D8 - 000075DB (0x4 bytes), align: 2
  Segment part 23.            Intra module refs:   connect_socket
                                                   socket_work_init
    -------------------------------------------------------------------------
DATA_I
  Relative segment, address: DATA_AREA 00000754 - 0000077B (0x28 bytes), align: 2
  Segment part 6.             Intra module refs:   Segment part 20
                                                   Segment part 23
                                                   reconnect_tmr_handler
           ENTRY                   ADDRESS         REF BY
           =====                   =======         ======
           disautorecconect        00000754        ssl_socket_msg_handler (ssl_work)
           is_gprs_online          00000764        ssl_socket_msg_handler (ssl_work)
           sock_data_read_handler
                                   00000758        ssl_socket_msg_handler (ssl_work)
           sock_error_handler      00000760        Segment part 45 (ssl_work)
           sock_remote_closed_handler
                                   0000075C        ssl_socket_msg_handler (ssl_work)
    -------------------------------------------------------------------------
CODE
  Relative segment, address: CODE_AREA 000075DC - 00007713 (0x138 bytes), align: 2
  Segment part 25.
           ENTRY                   ADDRESS         REF BY
           =====                   =======         ======
           send_answer             000075DC        HttpSendReq (htpp)
               stack 1 = 00000000 ( 00000024 )
    -------------------------------------------------------------------------
DATA_Z
  Relative segment, address: CODE_AREA 0000CB88 - 0000CB8B (0x4 bytes), align: 2
  Segment part 8.             Intra module refs:   send_answer
    -------------------------------------------------------------------------
CODE
  Relative segment, address: CODE_AREA 00007714 - 00007717 (0x4 bytes), align: 2
  Segment part 30.            Intra module refs:   connect_socket
                                                   send_answer
    -------------------------------------------------------------------------
DATA_ID
  Relative segment, address: CODE_AREA 00000754 - 0000077B (0x28 bytes), align: 2
  Segment part 7.             Intra module refs:   Segment part 6
    -------------------------------------------------------------------------
DATA_C
  Relative segment, address: CODE_AREA 0000BA68 - 0000BAEB (0x84 bytes), align: 2
  Segment part 2.             Intra module refs:   connect_socket
    -------------------------------------------------------------------------
DATA_C
  Relative segment, address: CODE_AREA 0000BAEC - 0000BAFF (0x14 bytes), align: 2
  Segment part 3.             Intra module refs:   send_answer

    *************************************************************************

  FILE NAME : D:\Users\alfinant\Documents\Siemens\Dev\IAR\VK.ELF_C\Releas_NSG\Obj\ssl_work.r79
  PROGRAM MODULE, NAME : ssl_work

  SEGMENTS IN THE MODULE
  ======================
CODE
  Relative segment, address: CODE_AREA 00007718 - 000077CB (0xb4 bytes), align: 2
  Segment part 15.            Intra module refs:   bread
           ENTRY                   ADDRESS         REF BY
           =====                   =======         ======
           tls1_alert_code_text    00007718 
    -------------------------------------------------------------------------
CODE
  Relative segment, address: CODE_AREA 000077CC - 0000784F (0x84 bytes), align: 2
  Segment part 19.            Intra module refs:   Segment part 40
           ENTRY                   ADDRESS         REF BY
           =====                   =======         ======
           bread                   000077CC 
               stack 1 = 00000000 ( 00000010 )
    -------------------------------------------------------------------------
CODE
  Relative segment, address: CODE_AREA 00007850 - 000078EB (0x9c bytes), align: 2
  Segment part 21.            Intra module refs:   Segment part 41
           ENTRY                   ADDRESS         REF BY
           =====                   =======         ======
           bwrite                  00007850 
               stack 1 = 00000000 ( 00000014 )
    -------------------------------------------------------------------------
CODE
  Relative segment, address: CODE_AREA 000078EC - 00007913 (0x28 bytes), align: 2
  Segment part 23.            Intra module refs:   ssl_socket_msg_handler
           ENTRY                   ADDRESS         REF BY
           =====                   =======         ======
           tmr_connect_timeout_handler
                                   000078EC 
               stack 1 = 00000000 ( 00000004 )
    -------------------------------------------------------------------------
CODE
  Relative segment, address: CODE_AREA 00007914 - 0000793B (0x28 bytes), align: 2
  Segment part 25.            Intra module refs:   Segment part 46
           ENTRY                   ADDRESS         REF BY
           =====                   =======         ======
           tmr_read_timeout_handler
                                   00007914 
               stack 1 = 00000000 ( 00000004 )
    -------------------------------------------------------------------------
CODE
  Relative segment, address: CODE_AREA 0000793C - 00007973 (0x38 bytes), align: 2
  Segment part 27.            Intra module refs:   end_ssl_work
                                                   ssl_connect
                                                   ssl_send_answer
                                                   ssl_socket_msg_handler
                                                   tmr_connect_timeout_handler
                                                   tmr_read_timeout_handler
           ENTRY                   ADDRESS         REF BY
           =====                   =======         ======
           end_ssl                 0000793C        socket_data_read_handler (main)
               stack 1 = 00000000 ( 00000008 )
    -------------------------------------------------------------------------
CODE
  Relative segment, address: CODE_AREA 00007974 - 0000798F (0x1c bytes), align: 2
  Segment part 29.
           ENTRY                   ADDRESS         REF BY
           =====                   =======         ======
           end_ssl_work            00007974        Logout (main)
                                                   MainProcess (main)
                                                   maincsm_onclose (main)
               stack 1 = 00000000 ( 00000004 )
    -------------------------------------------------------------------------
CODE
  Relative segment, address: CODE_AREA 00007990 - 00007A8B (0xfc bytes), align: 2
  Segment part 31.            Intra module refs:   ssl_socket_msg_handler
           LOCAL                   ADDRESS         
           =====                   =======         
           ssl_get_answer          00007990 
               stack 1 = 00000000 ( 00001014 )
    -------------------------------------------------------------------------
CODE
  Relative segment, address: CODE_AREA 00007A8C - 00007C1B (0x190 bytes), align: 2
  Segment part 33.            Intra module refs:   ssl_socket_msg_handler
           ENTRY                   ADDRESS         REF BY
           =====                   =======         ======
           ssl_send_answer         00007A8C        HttpSendReq (htpp)
               stack 1 = 00000000 ( 00000020 )
    -------------------------------------------------------------------------
CODE
  Relative segment, address: CODE_AREA 00007C1C - 00007C4B (0x30 bytes), align: 2
  Segment part 35.            Intra module refs:   ssl_connect
           LOCAL                   ADDRESS         
           =====                   =======         
           new_session             00007C1C 
               stack 1 = 00000000 ( 00000008 )
    -------------------------------------------------------------------------
CODE
  Relative segment, address: CODE_AREA 00007C4C - 00007C87 (0x3c bytes), align: 2
  Segment part 37.            Intra module refs:   ssl_connect
           LOCAL                   ADDRESS         
           =====                   =======         
           remove_session          00007C4C 
               stack 1 = 00000000 ( 00000004 )
    -------------------------------------------------------------------------
CODE
  Relative segment, address: CODE_AREA 00007C88 - 00007DEF (0x168 bytes), align: 2
  Segment part 39.            Intra module refs:   ssl_socket_msg_handler
           LOCAL                   ADDRESS         
           =====                   =======         
           ssl_connect             00007C88 
               stack 1 = 00000000 ( 00000020 )
    -------------------------------------------------------------------------
CODE
  Relative segment, address: CODE_AREA 00007DF0 - 00007DF3 (0x4 bytes), align: 2
  Segment part 40.            Intra module refs:   bwrite
                                                   ssl_connect
    -------------------------------------------------------------------------
CODE
  Relative segment, address: CODE_AREA 00007DF4 - 00007DF7 (0x4 bytes), align: 2
  Segment part 41.            Intra module refs:   bwrite
                                                   ssl_connect
    -------------------------------------------------------------------------
DATA_Z
  Relative segment, address: CODE_AREA 0000CB8C - 0000CB93 (0x8 bytes), align: 2
  Segment part 9.             Intra module refs:   ssl_connect
    -------------------------------------------------------------------------
DATA_Z
  Relative segment, address: CODE_AREA 0000CB94 - 0000CB97 (0x4 bytes), align: 2
  Segment part 12.            Intra module refs:   ssl_get_answer
    -------------------------------------------------------------------------
DATA_Z
  Relative segment, address: CODE_AREA 0000CB98 - 0000CB9F (0x8 bytes), align: 2
  Segment part 13.            Intra module refs:   ssl_send_answer
    -------------------------------------------------------------------------
CODE
  Relative segment, address: CODE_AREA 00007DF8 - 0000801F (0x228 bytes), align: 2
  Segment part 43.
           ENTRY                   ADDRESS         REF BY
           =====                   =======         ======
           ssl_socket_msg_handler
                                   00007DF8        maincsm_onmessage (main)
               stack 1 = 00000000 ( 00000020 )
    -------------------------------------------------------------------------
CODE
  Relative segment, address: CODE_AREA 00008020 - 00008023 (0x4 bytes), align: 2
  Segment part 44.            Intra module refs:   bread
                                                   new_session
                                                   remove_session
                                                   ssl_connect
                                                   ssl_get_answer
                                                   ssl_send_answer
                                                   ssl_socket_msg_handler
    -------------------------------------------------------------------------
CODE
  Relative segment, address: CODE_AREA 00008024 - 00008027 (0x4 bytes), align: 2
  Segment part 45.            Intra module refs:   ssl_connect
                                                   ssl_send_answer
                                                   ssl_socket_msg_handler
                                                   tmr_connect_timeout_handler
                                                   tmr_read_timeout_handler
    -------------------------------------------------------------------------
CODE
  Relative segment, address: CODE_AREA 00008028 - 0000802B (0x4 bytes), align: 2
  Segment part 46.            Intra module refs:   ssl_send_answer
                                                   ssl_socket_msg_handler
    -------------------------------------------------------------------------
DATA_C
  Relative segment, address: CODE_AREA 0000BB00 - 0000BB33 (0x34 bytes), align: 2
  Segment part 2.             Intra module refs:   ssl_get_answer
    -------------------------------------------------------------------------
DATA_C
  Relative segment, address: CODE_AREA 0000BB34 - 0000BB8B (0x58 bytes), align: 2
  Segment part 3.             Intra module refs:   ssl_socket_msg_handler
    -------------------------------------------------------------------------
DATA_C
  Relative segment, address: CODE_AREA 0000BB8C - 0000BC73 (0xe8 bytes), align: 2
  Segment part 4.             Intra module refs:   tls1_alert_code_text
    -------------------------------------------------------------------------
DATA_C
  Relative segment, address: CODE_AREA 0000BC74 - 0000BCA3 (0x30 bytes), align: 2
  Segment part 5.             Intra module refs:   ssl_send_answer
    -------------------------------------------------------------------------
DATA_C
  Relative segment, address: CODE_AREA 0000BCA4 - 0000BCB3 (0x10 bytes), align: 2
  Segment part 6.             Intra module refs:   new_session
    -------------------------------------------------------------------------
DATA_C
  Relative segment, address: CODE_AREA 0000BCB4 - 0000BCCB (0x18 bytes), align: 2
  Segment part 7.             Intra module refs:   remove_session
    -------------------------------------------------------------------------
DATA_C
  Relative segment, address: CODE_AREA 0000BCCC - 0000BCFF (0x34 bytes), align: 2
  Segment part 8.             Intra module refs:   ssl_connect

    *************************************************************************

  FILE NAME : D:\Users\alfinant\Documents\Siemens\Dev\IAR\VK.ELF_C\Releas_NSG\Obj\string_util.r79
  PROGRAM MODULE, NAME : string_util

  SEGMENTS IN THE MODULE
  ======================
CODE
  Relative segment, address: CODE_AREA 0000802C - 00008063 (0x38 bytes), align: 2
  Segment part 27.
           ENTRY                   ADDRESS         REF BY
           =====                   =======         ======
           stricmp                 0000802C        maincsm_onmessage (main)
                                                   parse_answer_auth_direct (vk_api)
               stack 1 = 00000000 ( 00000010 )
    -------------------------------------------------------------------------
CODE
  Relative segment, address: CODE_AREA 00008064 - 00008153 (0xf0 bytes), align: 2
  Segment part 54.
           ENTRY                   ADDRESS         REF BY
           =====                   =======         ======
           utf82win                00008064        parse_answer_auth_direct (vk_api)
    -------------------------------------------------------------------------
CODE
  Relative segment, address: CODE_AREA 00008154 - 00008237 (0xe4 bytes), align: 2
  Segment part 64.            Intra module refs:   Replace_Smiles_Syms
           LOCAL                   ADDRESS         
           =====                   =======         
           EncodeUTF8              00008154 
               stack 1 = 00000000 ( 00000004 )
    -------------------------------------------------------------------------
CODE
  Relative segment, address: CODE_AREA 00008238 - 000082A7 (0x70 bytes), align: 2
  Segment part 66.            Intra module refs:   CreateWS_emoji
           ENTRY                   ADDRESS         REF BY
           =====                   =======         ======
           utf8_syms_n             00008238 
               stack 1 = 00000000 ( 00000004 )
    -------------------------------------------------------------------------
CODE
  Relative segment, address: CODE_AREA 000082A8 - 00008577 (0x2d0 bytes), align: 2
  Segment part 68.            Intra module refs:   CreateWS_emoji
           ENTRY                   ADDRESS         REF BY
           =====                   =======         ======
           Replace_Smiles_Syms     000082A8 
               stack 1 = 00000000 ( 0000001C )
    -------------------------------------------------------------------------
CODE
  Relative segment, address: CODE_AREA 00008578 - 000085EF (0x78 bytes), align: 2
  Segment part 70.
           ENTRY                   ADDRESS         REF BY
           =====                   =======         ======
           CreateWS_emoji          00008578        new_Group (vk_objects)
                                                   new_Message (vk_objects)
                                                   new_User (vk_objects)
                                                   parse_answer_wall_get (parser_wall)
                                                   parse_obj_User (parser_user)
               stack 1 = 00000000 ( 00000010 )
    -------------------------------------------------------------------------
CODE
  Relative segment, address: CODE_AREA 000085F0 - 00008627 (0x38 bytes), align: 2
  Segment part 72.            Intra module refs:   stricmp
           ENTRY                   ADDRESS         REF BY
           =====                   =======         ======
           tolower                 000085F0        get_object_item (cJSON)

    *************************************************************************

  FILE NAME : D:\Users\alfinant\Documents\Siemens\Dev\IAR\VK.ELF_C\Releas_NSG\Obj\url_utils.r79
  PROGRAM MODULE, NAME : url_utils

  SEGMENTS IN THE MODULE
  ======================
CODE
  Relative segment, address: CODE_AREA 00008628 - 000086A7 (0x80 bytes), align: 2
  Segment part 13.
           ENTRY                   ADDRESS         REF BY
           =====                   =======         ======
           get_host_from_url       00008628        CONNDATA_findByURL (conndata)
                                                   CONNDATA_new (conndata)
                                                   __create_http_req (htpp)
               stack 1 = 00000000 ( 00000010 )

    *************************************************************************

  FILE NAME : D:\Users\alfinant\Documents\Siemens\Dev\IAR\VK.ELF_C\Releas_NSG\Obj\vk_api.r79
  PROGRAM MODULE, NAME : vk_api

  SEGMENTS IN THE MODULE
  ======================
DATA_C
  Relative segment, address: CODE_AREA 0000BD00 - 0000C1F3 (0x4f4 bytes), align: 2
  Segment part 2.             Intra module refs:   Segment part 43
           ENTRY                   ADDRESS         REF BY
           =====                   =======         ======
           API_VER                 0000C1EC        OpenAboutMenu (Menu_About)
    -------------------------------------------------------------------------
DATA_C
  Relative segment, address: CODE_AREA 0000C1F4 - 0000C2BB (0xc8 bytes), align: 2
  Segment part 5.             Intra module refs:   Segment part 67
    -------------------------------------------------------------------------
DATA_C
  Relative segment, address: CODE_AREA 0000C2BC - 0000C397 (0xdc bytes), align: 2
  Segment part 7.             Intra module refs:   Segment part 50
    -------------------------------------------------------------------------
DATA_Z
  Relative segment, address: CODE_AREA 0000CBA0 - 0000D10B (0x56c bytes), align: 2
  Segment part 8.             Intra module refs:   Segment part 64
                                                   parse_answer_auth_direct
           ENTRY                   ADDRESS         REF BY
           =====                   =======         ======
           ACCESS_TOKEN            0000CBAC        Segment part 55 (main)
           lp_ts                   0000CBA4        tmr_check_new_msg_handler (main)
           my_id                   0000CBA0 
           pts                     0000CBA8 
    -------------------------------------------------------------------------
CODE
  Relative segment, address: CODE_AREA 000086A8 - 000086FF (0x58 bytes), align: 2
  Segment part 12.
           ENTRY                   ADDRESS         REF BY
           =====                   =======         ======
           url_auth_direct         000086A8        ed_inp_onkey (Menu_Login)
               stack 1 = 00000000 ( 00000020 )
    -------------------------------------------------------------------------
CODE
  Relative segment, address: CODE_AREA 00008700 - 0000873F (0x40 bytes), align: 2
  Segment part 14.
           ENTRY                   ADDRESS         REF BY
           =====                   =======         ======
           url_stats_track_visitor
                                   00008700        tmr_check_new_msg_handler (main)
               stack 1 = 00000000 ( 00000014 )
    -------------------------------------------------------------------------
CODE
  Relative segment, address: CODE_AREA 00008740 - 00008793 (0x54 bytes), align: 2
  Segment part 16.
           ENTRY                   ADDRESS         REF BY
           =====                   =======         ======
           url_messages_getLongPollServer
                                   00008740        tmr_check_new_msg_handler (main)
               stack 1 = 00000000 ( 00000020 )
    -------------------------------------------------------------------------
CODE
  Relative segment, address: CODE_AREA 00008794 - 000087F3 (0x60 bytes), align: 2
  Segment part 18.
           ENTRY                   ADDRESS         REF BY
           =====                   =======         ======
           url_messages_getLongPollHistory
                                   00008794        tmr_check_new_msg_handler (main)
               stack 1 = 00000000 ( 00000024 )
    -------------------------------------------------------------------------
CODE
  Relative segment, address: CODE_AREA 000087F4 - 00008847 (0x54 bytes), align: 2
  Segment part 20.
           ENTRY                   ADDRESS         REF BY
           =====                   =======         ======
           url_messages_getConversations
                                   000087F4        items_menu_ghook (Menu_Dialogs)
                                                   items_menu_onkey (Menu_Dialogs)
               stack 1 = 00000000 ( 00000024 )
    -------------------------------------------------------------------------
CODE
  Relative segment, address: CODE_AREA 00008848 - 0000888F (0x48 bytes), align: 2
  Segment part 34.
           ENTRY                   ADDRESS         REF BY
           =====                   =======         ======
           url_groups_get          00008848        items_menu_onkey (Menu_Groups)
               stack 1 = 00000000 ( 0000001C )
    -------------------------------------------------------------------------
CODE
  Relative segment, address: CODE_AREA 00008890 - 000088DF (0x50 bytes), align: 2
  Segment part 38.
           ENTRY                   ADDRESS         REF BY
           =====                   =======         ======
           url_wall_get            00008890        gHook (Menu_GroupWall)
               stack 1 = 00000000 ( 00000020 )
    -------------------------------------------------------------------------
CODE
  Relative segment, address: CODE_AREA 000088E0 - 000088E3 (0x4 bytes), align: 2
  Segment part 43.            Intra module refs:   url_auth_direct
                                                   url_groups_get
                                                   url_messages_getConversations
                                                   url_messages_getLongPollHistory
                                                   url_messages_getLongPollServer
                                                   url_stats_track_visitor
                                                   url_wall_get
    -------------------------------------------------------------------------
CODE
  Relative segment, address: CODE_AREA 000088E4 - 00008A27 (0x144 bytes), align: 2
  Segment part 45.            Intra module refs:   parse_answer_messages_getConversations
           LOCAL                   ADDRESS         
           =====                   =======         
           __parse_obj_Message     000088E4 
               stack 1 = 00000000 ( 00000018 )
    -------------------------------------------------------------------------
CODE
  Relative segment, address: CODE_AREA 00008A28 - 00008B07 (0xe0 bytes), align: 2
  Segment part 47.            Intra module refs:   parse_answer_messages_getConversations
           LOCAL                   ADDRESS         
           =====                   =======         
           __parse_obj_User        00008A28 
               stack 1 = 00000000 ( 00000010 )
    -------------------------------------------------------------------------
CODE
  Relative segment, address: CODE_AREA 00008B08 - 00008C47 (0x140 bytes), align: 2
  Segment part 49.            Intra module refs:   parse_answer_groups_get
                                                   parse_answer_messages_getConversations
           LOCAL                   ADDRESS         
           =====                   =======         
           __parse_obj_Group       00008B08 
               stack 1 = 00000000 ( 00000018 )
    -------------------------------------------------------------------------
CODE
  Relative segment, address: CODE_AREA 00008C48 - 00008C4B (0x4 bytes), align: 2
  Segment part 50.            Intra module refs:   __parse_obj_Group
                                                   __parse_obj_Message
                                                   __parse_obj_User
    -------------------------------------------------------------------------
CODE
  Relative segment, address: CODE_AREA 00008C4C - 00008D7F (0x134 bytes), align: 2
  Segment part 52.
           ENTRY                   ADDRESS         REF BY
           =====                   =======         ======
           parse_answer_groups_get
                                   00008C4C        LoadSavedGroups (main)
                                                   MainProcess (main)
               stack 1 = 00000000 ( 00000040 )
    -------------------------------------------------------------------------
CODE
  Relative segment, address: CODE_AREA 00008D80 - 00008EBF (0x140 bytes), align: 2
  Segment part 58.
           ENTRY                   ADDRESS         REF BY
           =====                   =======         ======
           parse_answer_auth_direct
                                   00008D80        MainProcess (main)
               stack 1 = 00000000 ( 0000001C )
    -------------------------------------------------------------------------
CODE
  Relative segment, address: CODE_AREA 00008EC0 - 00008FDF (0x120 bytes), align: 2
  Segment part 60.
           ENTRY                   ADDRESS         REF BY
           =====                   =======         ======
           parse_answer_messages_getLongPollServer
                                   00008EC0        MainProcess (main)
               stack 1 = 00000000 ( 00000018 )
    -------------------------------------------------------------------------
CODE
  Relative segment, address: CODE_AREA 00008FE0 - 00008FE3 (0x4 bytes), align: 2
  Segment part 61.            Intra module refs:   parse_answer_auth_direct
                                                   parse_answer_messages_getLongPollServer
    -------------------------------------------------------------------------
CODE
  Relative segment, address: CODE_AREA 00008FE4 - 00008FE7 (0x4 bytes), align: 2
  Segment part 62.            Intra module refs:   parse_answer_auth_direct
                                                   parse_answer_messages_getLongPollServer
    -------------------------------------------------------------------------
CODE
  Relative segment, address: CODE_AREA 00008FE8 - 00008FEB (0x4 bytes), align: 2
  Segment part 63.            Intra module refs:   parse_answer_messages_getLongPollServer
    -------------------------------------------------------------------------
CODE
  Relative segment, address: CODE_AREA 00008FEC - 00008FEF (0x4 bytes), align: 2
  Segment part 64.            Intra module refs:   parse_answer_messages_getLongPollServer
                                                   url_auth_direct
                                                   url_groups_get
                                                   url_messages_getConversations
                                                   url_messages_getLongPollHistory
                                                   url_messages_getLongPollServer
                                                   url_stats_track_visitor
                                                   url_wall_get
    -------------------------------------------------------------------------
CODE
  Relative segment, address: CODE_AREA 00008FF0 - 000092E3 (0x2f4 bytes), align: 2
  Segment part 66.
           ENTRY                   ADDRESS         REF BY
           =====                   =======         ======
           parse_answer_messages_getConversations
                                   00008FF0        LoadSavedDialogs (main)
                                                   MainProcess (main)
               stack 1 = 00000000 ( 0000009C )
    -------------------------------------------------------------------------
CODE
  Relative segment, address: CODE_AREA 000092E4 - 000092E7 (0x4 bytes), align: 2
  Segment part 67.            Intra module refs:   parse_answer_auth_direct
                                                   parse_answer_groups_get
                                                   parse_answer_messages_getConversations
                                                   parse_answer_messages_getLongPollServer
    -------------------------------------------------------------------------
CODE
  Relative segment, address: CODE_AREA 000092E8 - 000092EB (0x4 bytes), align: 2
  Segment part 68.            Intra module refs:   parse_answer_groups_get
                                                   parse_answer_messages_getConversations
    -------------------------------------------------------------------------
CODE
  Relative segment, address: CODE_AREA 000092EC - 000092EF (0x4 bytes), align: 2
  Segment part 69.            Intra module refs:   parse_answer_messages_getConversations
    -------------------------------------------------------------------------
CODE
  Relative segment, address: CODE_AREA 000092F0 - 000092F3 (0x4 bytes), align: 2
  Segment part 70.            Intra module refs:   parse_answer_groups_get
                                                   parse_answer_messages_getConversations
    -------------------------------------------------------------------------
CODE
  Relative segment, address: CODE_AREA 000092F4 - 000092F7 (0x4 bytes), align: 2
  Segment part 71.            Intra module refs:   parse_answer_groups_get
                                                   parse_answer_messages_getConversations

    *************************************************************************

  FILE NAME : D:\Users\alfinant\Documents\Siemens\Dev\IAR\VK.ELF_C\Releas_NSG\Obj\vk_objects.r79
  PROGRAM MODULE, NAME : vk_objects

  SEGMENTS IN THE MODULE
  ======================
DATA_I
  Relative segment, address: DATA_AREA 0000077C - 00000783 (0x8 bytes), align: 2
  Segment part 2.             Intra module refs:   Segment part 3
                                                   del_Dialogs
           ENTRY                   ADDRESS         REF BY
           =====                   =======         ======
           dialogs                 0000077C        Segment part 30 (main)
                                                   Segment part 32 (Menu_Dialogs)
                                                   Segment part 68 (vk_api)
    -------------------------------------------------------------------------
DATA_I
  Relative segment, address: DATA_AREA 00000784 - 0000078B (0x8 bytes), align: 2
  Segment part 4.             Intra module refs:   Segment part 5
           ENTRY                   ADDRESS         REF BY
           =====                   =======         ======
           my_groups               00000784        LoadSavedGroups (main)
                                                   Segment part 30 (Menu_Groups)
                                                   Segment part 71 (vk_api)
    -------------------------------------------------------------------------
DATA_I
  Relative segment, address: DATA_AREA 0000078C - 00000793 (0x8 bytes), align: 2
  Segment part 6.             Intra module refs:   Segment part 7
           ENTRY                   ADDRESS         REF BY
           =====                   =======         ======
           friends                 0000078C        parse_answer_messages_getConversations (vk_api)
    -------------------------------------------------------------------------
DATA_I
  Relative segment, address: DATA_AREA 00000794 - 0000079B (0x8 bytes), align: 2
  Segment part 8.             Intra module refs:   Segment part 9
                                                   del_Profiles
           ENTRY                   ADDRESS         REF BY
           =====                   =======         ======
           profiles                00000794        Segment part 69 (vk_api)
    -------------------------------------------------------------------------
DATA_I
  Relative segment, address: DATA_AREA 0000079C - 000007A3 (0x8 bytes), align: 2
  Segment part 10.            Intra module refs:   Segment part 11
                                                   del_Groups
           ENTRY                   ADDRESS         REF BY
           =====                   =======         ======
           groups                  0000079C        Segment part 70 (vk_api)
    -------------------------------------------------------------------------
CODE
  Relative segment, address: CODE_AREA 000092F8 - 00009387 (0x90 bytes), align: 2
  Segment part 16.
           ENTRY                   ADDRESS         REF BY
           =====                   =======         ======
           new_User                000092F8        parse_answer_messages_getConversations (vk_api)
               stack 1 = 00000000 ( 0000000C )
    -------------------------------------------------------------------------
CODE
  Relative segment, address: CODE_AREA 00009388 - 000093B7 (0x30 bytes), align: 2
  Segment part 18.
           ENTRY                   ADDRESS         REF BY
           =====                   =======         ======
           find_User               00009388        parse_answer_messages_getConversations (vk_api)
    -------------------------------------------------------------------------
CODE
  Relative segment, address: CODE_AREA 000093B8 - 00009433 (0x7c bytes), align: 2
  Segment part 20.            Intra module refs:   del_Dialogs
                                                   del_Profiles
           ENTRY                   ADDRESS         REF BY
           =====                   =======         ======
           del_User                000093B8 
               stack 1 = 00000000 ( 00000008 )
    -------------------------------------------------------------------------
CODE
  Relative segment, address: CODE_AREA 00009434 - 0000946F (0x3c bytes), align: 2
  Segment part 28.
           ENTRY                   ADDRESS         REF BY
           =====                   =======         ======
           del_Profiles            00009434        maincsm_onclose (main)
               stack 1 = 00000000 ( 0000000C )
    -------------------------------------------------------------------------
CODE
  Relative segment, address: CODE_AREA 00009470 - 000094A7 (0x38 bytes), align: 2
  Segment part 30.            Intra module refs:   del_Message
           ENTRY                   ADDRESS         REF BY
           =====                   =======         ======
           del_attachments         00009470 
               stack 1 = 00000000 ( 0000000C )
    -------------------------------------------------------------------------
CODE
  Relative segment, address: CODE_AREA 000094A8 - 00009537 (0x90 bytes), align: 2
  Segment part 32.
           ENTRY                   ADDRESS         REF BY
           =====                   =======         ======
           new_Message             000094A8        parse_answer_messages_getConversations (vk_api)
               stack 1 = 00000000 ( 00000010 )
    -------------------------------------------------------------------------
CODE
  Relative segment, address: CODE_AREA 00009538 - 00009577 (0x40 bytes), align: 2
  Segment part 34.            Intra module refs:   del_Messages
           ENTRY                   ADDRESS         REF BY
           =====                   =======         ======
           del_Message             00009538 
               stack 1 = 00000000 ( 00000008 )
    -------------------------------------------------------------------------
CODE
  Relative segment, address: CODE_AREA 00009578 - 000095AF (0x38 bytes), align: 2
  Segment part 36.            Intra module refs:   del_Dialogs
           ENTRY                   ADDRESS         REF BY
           =====                   =======         ======
           del_Messages            00009578        parse_answer_messages_getConversations (vk_api)
               stack 1 = 00000000 ( 0000000C )
    -------------------------------------------------------------------------
CODE
  Relative segment, address: CODE_AREA 000095B0 - 00009647 (0x98 bytes), align: 2
  Segment part 38.
           ENTRY                   ADDRESS         REF BY
           =====                   =======         ======
           new_Group               000095B0        parse_answer_groups_get (vk_api)
                                                   parse_answer_messages_getConversations (vk_api)
               stack 1 = 00000000 ( 0000000C )
    -------------------------------------------------------------------------
CODE
  Relative segment, address: CODE_AREA 00009648 - 00009677 (0x30 bytes), align: 2
  Segment part 40.
           ENTRY                   ADDRESS         REF BY
           =====                   =======         ======
           find_Group              00009648        parse_answer_groups_get (vk_api)
                                                   parse_answer_messages_getConversations (vk_api)
    -------------------------------------------------------------------------
CODE
  Relative segment, address: CODE_AREA 00009678 - 000096F3 (0x7c bytes), align: 2
  Segment part 42.            Intra module refs:   del_Dialogs
                                                   del_Groups
           ENTRY                   ADDRESS         REF BY
           =====                   =======         ======
           del_Group               00009678        parse_answer_groups_get (vk_api)
                                                   parse_answer_messages_getConversations (vk_api)
               stack 1 = 00000000 ( 00000008 )
    -------------------------------------------------------------------------
CODE
  Relative segment, address: CODE_AREA 000096F4 - 0000972F (0x3c bytes), align: 2
  Segment part 44.
           ENTRY                   ADDRESS         REF BY
           =====                   =======         ======
           del_Groups              000096F4        maincsm_onclose (main)
               stack 1 = 00000000 ( 0000000C )
    -------------------------------------------------------------------------
CODE
  Relative segment, address: CODE_AREA 00009730 - 0000979B (0x6c bytes), align: 2
  Segment part 46.
           ENTRY                   ADDRESS         REF BY
           =====                   =======         ======
           new_Dialog              00009730        parse_answer_messages_getConversations (vk_api)
               stack 1 = 00000000 ( 00000010 )
    -------------------------------------------------------------------------
CODE
  Relative segment, address: CODE_AREA 0000979C - 000097F7 (0x5c bytes), align: 2
  Segment part 48.
           ENTRY                   ADDRESS         REF BY
           =====                   =======         ======
           FindDialog              0000979C        parse_answer_groups_get (vk_api)
                                                   parse_answer_messages_getConversations (vk_api)
    -------------------------------------------------------------------------
CODE
  Relative segment, address: CODE_AREA 000097F8 - 00009813 (0x1c bytes), align: 2
  Segment part 50.
           ENTRY                   ADDRESS         REF BY
           =====                   =======         ======
           get_DialogMsg           000097F8        CreateChat (Menu_Chat)
                                                   items_menu_iconhndl (Menu_Dialogs)
    -------------------------------------------------------------------------
CODE
  Relative segment, address: CODE_AREA 00009814 - 000098A3 (0x90 bytes), align: 2
  Segment part 52.
           ENTRY                   ADDRESS         REF BY
           =====                   =======         ======
           del_Dialogs             00009814        MainProcess (main)
                                                   maincsm_onclose (main)
               stack 1 = 00000000 ( 00000010 )
    -------------------------------------------------------------------------
CODE
  Relative segment, address: CODE_AREA 000098A4 - 000098CB (0x28 bytes), align: 2
  Segment part 54.
           ENTRY                   ADDRESS         REF BY
           =====                   =======         ======
           count_ListElements      000098A4        CreateDialogsMenu (Menu_Dialogs)
                                                   CreateGroupsMenu (Menu_Groups)
                                                   RefreshDialogsMenu (Menu_Dialogs)
                                                   RefreshGroupsMenu (Menu_Groups)
                                                   items_menu_iconhndl (Menu_Dialogs)
    -------------------------------------------------------------------------
CODE
  Relative segment, address: CODE_AREA 000098CC - 000098FF (0x34 bytes), align: 2
  Segment part 56.
           ENTRY                   ADDRESS         REF BY
           =====                   =======         ======
           get_ListByIndex         000098CC        items_menu_iconhndl (Menu_Dialogs)
                                                   items_menu_iconhndl (Menu_Groups)
                                                   items_menu_onkey (Menu_Dialogs)
                                                   items_menu_onkey (Menu_Groups)
                                                   onKey (Menu_GroupWall)
    -------------------------------------------------------------------------
DATA_ID
  Relative segment, address: CODE_AREA 0000077C - 00000783 (0x8 bytes), align: 2
  Segment part 3.             Intra module refs:   dialogs
    -------------------------------------------------------------------------
DATA_ID
  Relative segment, address: CODE_AREA 00000784 - 0000078B (0x8 bytes), align: 2
  Segment part 5.             Intra module refs:   my_groups
    -------------------------------------------------------------------------
DATA_ID
  Relative segment, address: CODE_AREA 0000078C - 00000793 (0x8 bytes), align: 2
  Segment part 7.             Intra module refs:   friends
    -------------------------------------------------------------------------
DATA_ID
  Relative segment, address: CODE_AREA 00000794 - 0000079B (0x8 bytes), align: 2
  Segment part 9.             Intra module refs:   profiles
    -------------------------------------------------------------------------
DATA_ID
  Relative segment, address: CODE_AREA 0000079C - 000007A3 (0x8 bytes), align: 2
  Segment part 11.            Intra module refs:   groups

    *************************************************************************

  FILE NAME : D:\Users\alfinant\Documents\Siemens\IAR\ARM\LIB\dl5tpainl8n.r79
  LIBRARY MODULE, NAME : ?fpStatus

  SEGMENTS IN THE MODULE
  ======================
DATA_Z
  Relative segment, address: CODE_AREA 0000D10C - 0000D10F (0x4 bytes), align: 2
  Segment part 2.
           ENTRY                   ADDRESS         REF BY
           =====                   =======         ======
           __FloatingPointFlags    0000D10C        Segment part 0 (?SetInvalidFlag)

    -------------------------------------------------------------------------
  LIBRARY MODULE, NAME : ?errno

  SEGMENTS IN THE MODULE
  ======================
DATA_Z
  Relative segment, address: CODE_AREA 0000D110 - 0000D117 (0x8 bytes), align: 2
  Segment part 2.             Intra module refs:   _Geterrno
           ENTRY                   ADDRESS         REF BY
           =====                   =======         ======
           _Errno                  0000D114 
           _Tls_setup__Errno       0000D110 
    -------------------------------------------------------------------------
CODE
  Relative segment, address: CODE_AREA 00009900 - 00009923 (0x24 bytes), align: 2
  Segment part 4.
           ENTRY                   ADDRESS         REF BY
           =====                   =======         ======
           _Geterrno               00009900        _Dtento (?xdtento)
               stack 1 = 00000000 ( 00000008 )

    -------------------------------------------------------------------------
  LIBRARY MODULE, NAME : ?xdnorm

  SEGMENTS IN THE MODULE
  ======================
CODE
  Relative segment, address: CODE_AREA 00009924 - 00009A73 (0x150 bytes), align: 2
  Segment part 3.
           ENTRY                   ADDRESS         REF BY
           =====                   =======         ======
           _Dnorm                  00009924        _Dscale (?xdscale)
                                                   _Dunscale (?xdtento)

    -------------------------------------------------------------------------
  LIBRARY MODULE, NAME : ?xdscale

  SEGMENTS IN THE MODULE
  ======================
CODE
  Relative segment, address: CODE_AREA 00009A74 - 00009C43 (0x1d0 bytes), align: 2
  Segment part 3.
           ENTRY                   ADDRESS         REF BY
           =====                   =======         ======
           _Dscale                 00009A74        _Dtento (?xdtento)
               stack 1 = 00000000 ( 00000010 )

    -------------------------------------------------------------------------
  LIBRARY MODULE, NAME : ?xdtento

  SEGMENTS IN THE MODULE
  ======================
CODE
  Relative segment, address: CODE_AREA 00009C44 - 00009D0B (0xc8 bytes), align: 2
  Segment part 3.             Intra module refs:   _Dtento
           ENTRY                   ADDRESS         REF BY
           =====                   =======         ======
           _Dunscale               00009C44 
               stack 1 = 00000000 ( 00000010 )
    -------------------------------------------------------------------------
DATA_C
  Relative segment, address: CODE_AREA 0000C398 - 0000C3DF (0x48 bytes), align: 2
  Segment part 2.             Intra module refs:   _Dtento
    -------------------------------------------------------------------------
CODE
  Relative segment, address: CODE_AREA 00009D0C - 00009F57 (0x24c bytes), align: 2
  Segment part 5.
           ENTRY                   ADDRESS         REF BY
           =====                   =======         ======
           _Dtento                 00009D0C        _Stod (?xstod)
               stack 1 = 00000000 ( 00000028 )

    -------------------------------------------------------------------------
  LIBRARY MODULE, NAME : ?xstod

  SEGMENTS IN THE MODULE
  ======================
DATA_C
  Relative segment, address: CODE_AREA 0000C3E0 - 0000C3EF (0x10 bytes), align: 2
  Segment part 2.             Intra module refs:   _Stod
    -------------------------------------------------------------------------
CODE
  Relative segment, address: CODE_AREA 00009F58 - 0000A07B (0x124 bytes), align: 2
  Segment part 4.
           ENTRY                   ADDRESS         REF BY
           =====                   =======         ======
           _Stod                   00009F58        parse_number (cJSON)
               stack 1 = 00000000 ( 00000040 )

    -------------------------------------------------------------------------
  LIBRARY MODULE, NAME : ?xstoflt

  SEGMENTS IN THE MODULE
  ======================
DATA_C
  Relative segment, address: CODE_AREA 0000C3F0 - 0000C40F (0x20 bytes), align: 2
  Segment part 2.             Intra module refs:   _Stoflt
    -------------------------------------------------------------------------
CODE
  Relative segment, address: CODE_AREA 0000A07C - 0000A31B (0x2a0 bytes), align: 2
  Segment part 4.
           ENTRY                   ADDRESS         REF BY
           =====                   =======         ======
           _Stoflt                 0000A07C        _Stod (?xstod)
               stack 1 = 00000000 ( 0000001C )

    -------------------------------------------------------------------------
  LIBRARY MODULE, NAME : ?xstopfx

  SEGMENTS IN THE MODULE
  ======================
CODE
  Relative segment, address: CODE_AREA 0000A31C - 0000A34B (0x30 bytes), align: 2
  Segment part 2.             Intra module refs:   isalnum
           ENTRY                   ADDRESS         REF BY
           =====                   =======         ======
           _LocaleC_isalpha        0000A31C 
    -------------------------------------------------------------------------
CODE
  Relative segment, address: CODE_AREA 0000A34C - 0000A37B (0x30 bytes), align: 2
  Segment part 3.             Intra module refs:   _Stopfx
           ENTRY                   ADDRESS         REF BY
           =====                   =======         ======
           isalnum                 0000A34C 
               stack 1 = 00000000 ( 00000008 )
    -------------------------------------------------------------------------
CODE
  Relative segment, address: CODE_AREA 0000A37C - 0000A4DF (0x164 bytes), align: 2
  Segment part 5.
           ENTRY                   ADDRESS         REF BY
           =====                   =======         ======
           _Stopfx                 0000A37C        _Stod (?xstod)
               stack 1 = 00000000 ( 00000010 )

    -------------------------------------------------------------------------
  LIBRARY MODULE, NAME : ?xvalues

  SEGMENTS IN THE MODULE
  ======================
DATA_C
  Relative segment, address: CODE_AREA 0000C410 - 0000C417 (0x8 bytes), align: 2
  Segment part 5.
           ENTRY                   ADDRESS         REF BY
           =====                   =======         ======
           _Inf                    0000C410        _Dscale (?xdscale)
                                                   _Stod (?xstod)
    -------------------------------------------------------------------------
DATA_C
  Relative segment, address: CODE_AREA 0000C418 - 0000C41F (0x8 bytes), align: 2
  Segment part 6.
           ENTRY                   ADDRESS         REF BY
           =====                   =======         ======
           _Nan                    0000C418        _Stod (?xstod)

    -------------------------------------------------------------------------
  LIBRARY MODULE, NAME : ?GetDenormal

  SEGMENTS IN THE MODULE
  ======================
CODE
  Relative segment, address: CODE_AREA 0000A4E0 - 0000A53F (0x60 bytes), align: 2
  Segment part 0.
           ENTRY                   ADDRESS         REF BY
           =====                   =======         ======
           ?GetDenormalX           0000A4E0        Segment part 1 (?D_DivDouble)
                                                   Segment part 1 (?D_MulFloat)
           ?GetDenormalY           0000A510        Segment part 1 (?D_DivDouble)
                                                   Segment part 1 (?D_MulFloat)

    -------------------------------------------------------------------------
  LIBRARY MODULE, NAME : ?D_LONG2DOUBLE

  SEGMENTS IN THE MODULE
  ======================
CODE
  Relative segment, address: CODE_AREA 0000A540 - 0000A59B (0x5c bytes), align: 2
  Segment part 1.
           ENTRY                   ADDRESS         REF BY
           =====                   =======         ======
           __aeabi_i2d             0000A540 
           __longToDouble          0000A540        _Stod (?xstod)
           __longToDouble::??rA    0000A540 
           __longToDubleStart      0000A55C 

    -------------------------------------------------------------------------
  LIBRARY MODULE, NAME : ?D_DOUBLE2LONG

  SEGMENTS IN THE MODULE
  ======================
CODE
  Relative segment, address: CODE_AREA 0000A59C - 0000A5FB (0x60 bytes), align: 2
  Segment part 1.
           ENTRY                   ADDRESS         REF BY
           =====                   =======         ======
           __aeabi_d2iz            0000A59C 
           __doubleToLong          0000A59C        parse_number (cJSON)
           __doubleToLong::??rA    0000A59C 

    -------------------------------------------------------------------------
  LIBRARY MODULE, NAME : ?DBL_EQ

  SEGMENTS IN THE MODULE
  ======================
CODE
  Relative segment, address: CODE_AREA 0000A5FC - 0000A62F (0x34 bytes), align: 2
  Segment part 0.
           ENTRY                   ADDRESS         REF BY
           =====                   =======         ======
           __aeabi_cdcmpeq         0000A5FC        Segment part 1 (?D_CmpFloat)

    -------------------------------------------------------------------------
  LIBRARY MODULE, NAME : ?D_CmpFloat

  SEGMENTS IN THE MODULE
  ======================
CODE
  Relative segment, address: CODE_AREA 0000A630 - 0000A647 (0x18 bytes), align: 2
  Segment part 1.
           ENTRY                   ADDRESS         REF BY
           =====                   =======         ======
           __aeabi_dcmpeq          0000A630 
           __dEqual                0000A630        _Dtento (?xdtento)
           __dEqual::??rA          0000A630 

    -------------------------------------------------------------------------
  LIBRARY MODULE, NAME : ?SetInvalidFlag

  SEGMENTS IN THE MODULE
  ======================
CODE
  Relative segment, address: CODE_AREA 0000A648 - 0000A663 (0x1c bytes), align: 2
  Segment part 0.
           ENTRY                   ADDRESS         REF BY
           =====                   =======         ======
           ?SetInvalidFlag         0000A64C        __aeabi_cdcmple (?DBL_LT)
           ?SetInvalidFlagClr      0000A648        __aeabi_cdrcmple (?DBL_GE)

    -------------------------------------------------------------------------
  LIBRARY MODULE, NAME : ?DBL_GE

  SEGMENTS IN THE MODULE
  ======================
CODE
  Relative segment, address: CODE_AREA 0000A664 - 0000A6A3 (0x40 bytes), align: 2
  Segment part 0.
           ENTRY                   ADDRESS         REF BY
           =====                   =======         ======
           __aeabi_cdrcmple        0000A664        Segment part 1 (?D_CmpFloat5)

    -------------------------------------------------------------------------
  LIBRARY MODULE, NAME : ?D_CmpFloat5

  SEGMENTS IN THE MODULE
  ======================
CODE
  Relative segment, address: CODE_AREA 0000A6A4 - 0000A6BB (0x18 bytes), align: 2
  Segment part 1.
           ENTRY                   ADDRESS         REF BY
           =====                   =======         ======
           __aeabi_dcmpge          0000A6A4 
           __dGreaterEqual         0000A6A4        parse_number (cJSON)
           __dGreaterEqual::??rA   0000A6A4 

    -------------------------------------------------------------------------
  LIBRARY MODULE, NAME : ?DBL_LT

  SEGMENTS IN THE MODULE
  ======================
CODE
  Relative segment, address: CODE_AREA 0000A6BC - 0000A6FB (0x40 bytes), align: 2
  Segment part 0.
           ENTRY                   ADDRESS         REF BY
           =====                   =======         ======
           __aeabi_cdcmple         0000A6BC        Segment part 1 (?D_CmpFloat4)

    -------------------------------------------------------------------------
  LIBRARY MODULE, NAME : ?D_CmpFloat4

  SEGMENTS IN THE MODULE
  ======================
CODE
  Relative segment, address: CODE_AREA 0000A6FC - 0000A713 (0x18 bytes), align: 2
  Segment part 1.
           ENTRY                   ADDRESS         REF BY
           =====                   =======         ======
           __dLess                 0000A6FC        parse_number (cJSON)
           __dLess::??rA           0000A6FC 
           __aeabi_dcmplt          0000A6FC 

    -------------------------------------------------------------------------
  LIBRARY MODULE, NAME : ?D_MulFloat

  SEGMENTS IN THE MODULE
  ======================
CODE
  Relative segment, address: CODE_AREA 0000A714 - 0000A94B (0x238 bytes), align: 2
  Segment part 1.
           ENTRY                   ADDRESS         REF BY
           =====                   =======         ======
           __dMul                  0000A714        _Dtento (?xdtento)
                                                   _Stod (?xstod)
           __dMul::??rA            0000A714 
           __aeabi_dmul            0000A714 

    -------------------------------------------------------------------------
  LIBRARY MODULE, NAME : ?D_DivDouble

  SEGMENTS IN THE MODULE
  ======================
CODE
  Relative segment, address: CODE_AREA 0000A94C - 0000AC7F (0x334 bytes), align: 2
  Segment part 1.
           ENTRY                   ADDRESS         REF BY
           =====                   =======         ======
           __aeabi_ddiv            0000A94C 
           __dDiv                  0000A94C        _Dtento (?xdtento)
           __dDiv::??rA            0000A94C 

    -------------------------------------------------------------------------
  LIBRARY MODULE, NAME : ?D_SubDouble

  SEGMENTS IN THE MODULE
  ======================
CODE
  Relative segment, address: CODE_AREA 0000AC80 - 0000AE77 (0x1f8 bytes), align: 2
  Segment part 1.
           ENTRY                   ADDRESS         REF BY
           =====                   =======         ======
           __aeabi_dsub            0000AC80 
           __dSub                  0000AC80 
           __dSub::??rA            0000AC80 
           __DoSub                 0000AC90        Segment part 1 (?D_AddDouble)

    -------------------------------------------------------------------------
  LIBRARY MODULE, NAME : ?D_AddDouble

  SEGMENTS IN THE MODULE
  ======================
CODE
  Relative segment, address: CODE_AREA 0000AE78 - 0000AFBB (0x144 bytes), align: 2
  Segment part 1.
           ENTRY                   ADDRESS         REF BY
           =====                   =======         ======
           __aeabi_dadd            0000AE78 
           __dAdd                  0000AE78        _Stod (?xstod)
           __dAdd::??rA            0000AE78 
           __DoAdd                 0000AE88        Segment part 1 (?D_SubDouble)



                ****************************************
                *                                      *
                *        END OF CROSS REFERENCE        *
                *                                      *
                ****************************************

 54 005 bytes of CODE memory
  1 956 bytes of DATA memory

Errors: none
Warnings: none

